
camera_sync.elf:     file format elf32-littlearm

Sections:
Idx Name          Size      VMA       LMA       File off  Algn
  0 .isr_vector   00000298  08000000  08000000  00001000  2**0
                  CONTENTS, ALLOC, LOAD, READONLY, DATA
  1 .text         00001aa8  08000298  08000298  00001298  2**2
                  CONTENTS, ALLOC, LOAD, READONLY, CODE
  2 .rodata       00000010  08001d40  08001d40  00002d40  2**0
                  CONTENTS, ALLOC, LOAD, READONLY, DATA
  3 .init_array   00000004  08001d50  08001d50  00002d50  2**2
                  CONTENTS, ALLOC, LOAD, READONLY, DATA
  4 .fini_array   00000004  08001d54  08001d54  00002d54  2**2
                  CONTENTS, ALLOC, LOAD, READONLY, DATA
  5 .data         00000010  24000000  08001d58  00003000  2**2
                  CONTENTS, ALLOC, LOAD, DATA
  6 .bss          0000006c  24000010  08001d68  00003010  2**2
                  ALLOC
  7 ._user_heap_stack 00000604  2400007c  08001d68  0000307c  2**0
                  ALLOC
  8 .ARM.attributes 0000002e  00000000  00000000  00003010  2**0
                  CONTENTS, READONLY
  9 .comment      00000043  00000000  00000000  0000303e  2**0
                  CONTENTS, READONLY
 10 .debug_frame  0000004c  00000000  00000000  00003084  2**2
                  CONTENTS, READONLY, DEBUGGING, OCTETS

Disassembly of section .text:

08000298 <__do_global_dtors_aux>:
 8000298:	b510      	push	{r4, lr}
 800029a:	4c05      	ldr	r4, [pc, #20]	@ (80002b0 <__do_global_dtors_aux+0x18>)
 800029c:	7823      	ldrb	r3, [r4, #0]
 800029e:	b933      	cbnz	r3, 80002ae <__do_global_dtors_aux+0x16>
 80002a0:	4b04      	ldr	r3, [pc, #16]	@ (80002b4 <__do_global_dtors_aux+0x1c>)
 80002a2:	b113      	cbz	r3, 80002aa <__do_global_dtors_aux+0x12>
 80002a4:	4804      	ldr	r0, [pc, #16]	@ (80002b8 <__do_global_dtors_aux+0x20>)
 80002a6:	f3af 8000 	nop.w
 80002aa:	2301      	movs	r3, #1
 80002ac:	7023      	strb	r3, [r4, #0]
 80002ae:	bd10      	pop	{r4, pc}
 80002b0:	24000010 	.word	0x24000010
 80002b4:	00000000 	.word	0x00000000
 80002b8:	08001d28 	.word	0x08001d28

080002bc <frame_dummy>:
 80002bc:	b508      	push	{r3, lr}
 80002be:	4b03      	ldr	r3, [pc, #12]	@ (80002cc <frame_dummy+0x10>)
 80002c0:	b11b      	cbz	r3, 80002ca <frame_dummy+0xe>
 80002c2:	4903      	ldr	r1, [pc, #12]	@ (80002d0 <frame_dummy+0x14>)
 80002c4:	4803      	ldr	r0, [pc, #12]	@ (80002d4 <frame_dummy+0x18>)
 80002c6:	f3af 8000 	nop.w
 80002ca:	bd08      	pop	{r3, pc}
 80002cc:	00000000 	.word	0x00000000
 80002d0:	24000014 	.word	0x24000014
 80002d4:	08001d28 	.word	0x08001d28

080002d8 <SystemClock_Config>:
 80002d8:	b510      	push	{r4, lr}
 80002da:	b09c      	sub	sp, #112	@ 0x70
 80002dc:	224c      	movs	r2, #76	@ 0x4c
 80002de:	2100      	movs	r1, #0
 80002e0:	a809      	add	r0, sp, #36	@ 0x24
 80002e2:	f001 fcf5 	bl	8001cd0 <memset>
 80002e6:	2220      	movs	r2, #32
 80002e8:	2100      	movs	r1, #0
 80002ea:	a801      	add	r0, sp, #4
 80002ec:	f001 fcf0 	bl	8001cd0 <memset>
 80002f0:	2002      	movs	r0, #2
 80002f2:	f000 fbdf 	bl	8000ab4 <HAL_PWREx_ConfigSupply>
 80002f6:	2300      	movs	r3, #0
 80002f8:	9300      	str	r3, [sp, #0]
 80002fa:	4b1c      	ldr	r3, [pc, #112]	@ (800036c <SystemClock_Config+0x94>)
 80002fc:	6ada      	ldr	r2, [r3, #44]	@ 0x2c
 80002fe:	f022 0201 	bic.w	r2, r2, #1
 8000302:	62da      	str	r2, [r3, #44]	@ 0x2c
 8000304:	6adb      	ldr	r3, [r3, #44]	@ 0x2c
 8000306:	4a1a      	ldr	r2, [pc, #104]	@ (8000370 <SystemClock_Config+0x98>)
 8000308:	f003 0301 	and.w	r3, r3, #1
 800030c:	9300      	str	r3, [sp, #0]
 800030e:	6993      	ldr	r3, [r2, #24]
 8000310:	f423 4340 	bic.w	r3, r3, #49152	@ 0xc000
 8000314:	f443 4380 	orr.w	r3, r3, #16384	@ 0x4000
 8000318:	6193      	str	r3, [r2, #24]
 800031a:	6993      	ldr	r3, [r2, #24]
 800031c:	f403 4340 	and.w	r3, r3, #49152	@ 0xc000
 8000320:	9300      	str	r3, [sp, #0]
 8000322:	9b00      	ldr	r3, [sp, #0]
 8000324:	6993      	ldr	r3, [r2, #24]
 8000326:	049b      	lsls	r3, r3, #18
 8000328:	d5fc      	bpl.n	8000324 <SystemClock_Config+0x4c>
 800032a:	2302      	movs	r3, #2
 800032c:	2401      	movs	r4, #1
 800032e:	a809      	add	r0, sp, #36	@ 0x24
 8000330:	9309      	str	r3, [sp, #36]	@ 0x24
 8000332:	2340      	movs	r3, #64	@ 0x40
 8000334:	e9cd 430c 	strd	r4, r3, [sp, #48]	@ 0x30
 8000338:	2300      	movs	r3, #0
 800033a:	9312      	str	r3, [sp, #72]	@ 0x48
 800033c:	f000 fbde 	bl	8000afc <HAL_RCC_OscConfig>
 8000340:	b108      	cbz	r0, 8000346 <SystemClock_Config+0x6e>
 8000342:	b672      	cpsid	i
 8000344:	e7fe      	b.n	8000344 <SystemClock_Config+0x6c>
 8000346:	233f      	movs	r3, #63	@ 0x3f
 8000348:	4621      	mov	r1, r4
 800034a:	e9cd 3001 	strd	r3, r0, [sp, #4]
 800034e:	e9cd 0003 	strd	r0, r0, [sp, #12]
 8000352:	e9cd 0005 	strd	r0, r0, [sp, #20]
 8000356:	e9cd 0007 	strd	r0, r0, [sp, #28]
 800035a:	a801      	add	r0, sp, #4
 800035c:	f000 ff18 	bl	8001190 <HAL_RCC_ClockConfig>
 8000360:	b108      	cbz	r0, 8000366 <SystemClock_Config+0x8e>
 8000362:	b672      	cpsid	i
 8000364:	e7fe      	b.n	8000364 <SystemClock_Config+0x8c>
 8000366:	b01c      	add	sp, #112	@ 0x70
 8000368:	bd10      	pop	{r4, pc}
 800036a:	bf00      	nop
 800036c:	58000400 	.word	0x58000400
 8000370:	58024800 	.word	0x58024800

08000374 <main>:
 8000374:	b500      	push	{lr}
 8000376:	b09b      	sub	sp, #108	@ 0x6c
 8000378:	2210      	movs	r2, #16
 800037a:	2100      	movs	r1, #0
 800037c:	2500      	movs	r5, #0
 800037e:	a80f      	add	r0, sp, #60	@ 0x3c
 8000380:	4c49      	ldr	r4, [pc, #292]	@ (80004a8 <main+0x134>)
 8000382:	f001 fca5 	bl	8001cd0 <memset>
 8000386:	f000 fa63 	bl	8000850 <HAL_MPU_Disable>
 800038a:	2301      	movs	r3, #1
 800038c:	a80f      	add	r0, sp, #60	@ 0x3c
 800038e:	f8ad 303c 	strh.w	r3, [sp, #60]	@ 0x3c
 8000392:	f248 731f 	movw	r3, #34591	@ 0x871f
 8000396:	e9cd 5310 	strd	r5, r3, [sp, #64]	@ 0x40
 800039a:	f240 1301 	movw	r3, #257	@ 0x101
 800039e:	9312      	str	r3, [sp, #72]	@ 0x48
 80003a0:	f000 fa74 	bl	800088c <HAL_MPU_ConfigRegion>
 80003a4:	2004      	movs	r0, #4
 80003a6:	f000 fa61 	bl	800086c <HAL_MPU_Enable>
 80003aa:	f000 f9b3 	bl	8000714 <HAL_Init>
 80003ae:	f7ff ff93 	bl	80002d8 <SystemClock_Config>
 80003b2:	4b3e      	ldr	r3, [pc, #248]	@ (80004ac <main+0x138>)
 80003b4:	4629      	mov	r1, r5
 80003b6:	f8d3 20e0 	ldr.w	r2, [r3, #224]	@ 0xe0
 80003ba:	f042 0210 	orr.w	r2, r2, #16
 80003be:	f8c3 20e0 	str.w	r2, [r3, #224]	@ 0xe0
 80003c2:	2210      	movs	r2, #16
 80003c4:	f8d3 30e0 	ldr.w	r3, [r3, #224]	@ 0xe0
 80003c8:	eb0d 0002 	add.w	r0, sp, r2
 80003cc:	f003 0310 	and.w	r3, r3, #16
 80003d0:	9300      	str	r3, [sp, #0]
 80003d2:	9b00      	ldr	r3, [sp, #0]
 80003d4:	f001 fc7c 	bl	8001cd0 <memset>
 80003d8:	221c      	movs	r2, #28
 80003da:	4629      	mov	r1, r5
 80003dc:	a808      	add	r0, sp, #32
 80003de:	9503      	str	r5, [sp, #12]
 80003e0:	e9cd 5501 	strd	r5, r5, [sp, #4]
 80003e4:	f001 fc74 	bl	8001cd0 <memset>
 80003e8:	222c      	movs	r2, #44	@ 0x2c
 80003ea:	4629      	mov	r1, r5
 80003ec:	a80f      	add	r0, sp, #60	@ 0x3c
 80003ee:	f001 fc6f 	bl	8001cd0 <memset>
 80003f2:	482f      	ldr	r0, [pc, #188]	@ (80004b0 <main+0x13c>)
 80003f4:	233f      	movs	r3, #63	@ 0x3f
 80003f6:	60a5      	str	r5, [r4, #8]
 80003f8:	e9c4 0300 	strd	r0, r3, [r4]
 80003fc:	f244 131a 	movw	r3, #16666	@ 0x411a
 8000400:	4620      	mov	r0, r4
 8000402:	e9c4 3503 	strd	r3, r5, [r4, #12]
 8000406:	e9c4 5505 	strd	r5, r5, [r4, #20]
 800040a:	f001 f953 	bl	80016b4 <HAL_TIM_Base_Init>
 800040e:	b108      	cbz	r0, 8000414 <main+0xa0>
 8000410:	b672      	cpsid	i
 8000412:	e7fe      	b.n	8000412 <main+0x9e>
 8000414:	f44f 5380 	mov.w	r3, #4096	@ 0x1000
 8000418:	a904      	add	r1, sp, #16
 800041a:	4620      	mov	r0, r4
 800041c:	9304      	str	r3, [sp, #16]
 800041e:	f001 fa6f 	bl	8001900 <HAL_TIM_ConfigClockSource>
 8000422:	b108      	cbz	r0, 8000428 <main+0xb4>
 8000424:	b672      	cpsid	i
 8000426:	e7fe      	b.n	8000426 <main+0xb2>
 8000428:	4620      	mov	r0, r4
 800042a:	f001 f973 	bl	8001714 <HAL_TIM_PWM_Init>
 800042e:	b108      	cbz	r0, 8000434 <main+0xc0>
 8000430:	b672      	cpsid	i
 8000432:	e7fe      	b.n	8000432 <main+0xbe>
 8000434:	e9cd 0001 	strd	r0, r0, [sp, #4]
 8000438:	9003      	str	r0, [sp, #12]
 800043a:	a901      	add	r1, sp, #4
 800043c:	4620      	mov	r0, r4
 800043e:	f001 fbbb 	bl	8001bb8 <HAL_TIMEx_MasterConfigSynchronization>
 8000442:	4602      	mov	r2, r0
 8000444:	b108      	cbz	r0, 800044a <main+0xd6>
 8000446:	b672      	cpsid	i
 8000448:	e7fe      	b.n	8000448 <main+0xd4>
 800044a:	2160      	movs	r1, #96	@ 0x60
 800044c:	230a      	movs	r3, #10
 800044e:	900e      	str	r0, [sp, #56]	@ 0x38
 8000450:	e9cd 1308 	strd	r1, r3, [sp, #32]
 8000454:	e9cd 000a 	strd	r0, r0, [sp, #40]	@ 0x28
 8000458:	e9cd 000c 	strd	r0, r0, [sp, #48]	@ 0x30
 800045c:	a908      	add	r1, sp, #32
 800045e:	4620      	mov	r0, r4
 8000460:	f001 f9c8 	bl	80017f4 <HAL_TIM_PWM_ConfigChannel>
 8000464:	b108      	cbz	r0, 800046a <main+0xf6>
 8000466:	b672      	cpsid	i
 8000468:	e7fe      	b.n	8000468 <main+0xf4>
 800046a:	f44f 5300 	mov.w	r3, #8192	@ 0x2000
 800046e:	9013      	str	r0, [sp, #76]	@ 0x4c
 8000470:	9016      	str	r0, [sp, #88]	@ 0x58
 8000472:	a90f      	add	r1, sp, #60	@ 0x3c
 8000474:	9019      	str	r0, [sp, #100]	@ 0x64
 8000476:	e9cd 3014 	strd	r3, r0, [sp, #80]	@ 0x50
 800047a:	f04f 7300 	mov.w	r3, #33554432	@ 0x2000000
 800047e:	e9cd 000f 	strd	r0, r0, [sp, #60]	@ 0x3c
 8000482:	e9cd 0011 	strd	r0, r0, [sp, #68]	@ 0x44
 8000486:	e9cd 3017 	strd	r3, r0, [sp, #92]	@ 0x5c
 800048a:	4620      	mov	r0, r4
 800048c:	f001 fbde 	bl	8001c4c <HAL_TIMEx_ConfigBreakDeadTime>
 8000490:	4605      	mov	r5, r0
 8000492:	b108      	cbz	r0, 8000498 <main+0x124>
 8000494:	b672      	cpsid	i
 8000496:	e7fe      	b.n	8000496 <main+0x122>
 8000498:	4620      	mov	r0, r4
 800049a:	f000 f835 	bl	8000508 <HAL_TIM_MspPostInit>
 800049e:	4629      	mov	r1, r5
 80004a0:	4620      	mov	r0, r4
 80004a2:	f001 fb87 	bl	8001bb4 <HAL_TIM_PWM_Start>
 80004a6:	e7fe      	b.n	80004a6 <main+0x132>
 80004a8:	2400002c 	.word	0x2400002c
 80004ac:	58024400 	.word	0x58024400
 80004b0:	40010000 	.word	0x40010000

080004b4 <HAL_MspInit>:
 80004b4:	4b07      	ldr	r3, [pc, #28]	@ (80004d4 <HAL_MspInit+0x20>)
 80004b6:	b082      	sub	sp, #8
 80004b8:	f8d3 20f4 	ldr.w	r2, [r3, #244]	@ 0xf4
 80004bc:	f042 0202 	orr.w	r2, r2, #2
 80004c0:	f8c3 20f4 	str.w	r2, [r3, #244]	@ 0xf4
 80004c4:	f8d3 30f4 	ldr.w	r3, [r3, #244]	@ 0xf4
 80004c8:	f003 0302 	and.w	r3, r3, #2
 80004cc:	9301      	str	r3, [sp, #4]
 80004ce:	9b01      	ldr	r3, [sp, #4]
 80004d0:	b002      	add	sp, #8
 80004d2:	4770      	bx	lr
 80004d4:	58024400 	.word	0x58024400

080004d8 <HAL_TIM_Base_MspInit>:
 80004d8:	6802      	ldr	r2, [r0, #0]
 80004da:	b082      	sub	sp, #8
 80004dc:	4b08      	ldr	r3, [pc, #32]	@ (8000500 <HAL_TIM_Base_MspInit+0x28>)
 80004de:	429a      	cmp	r2, r3
 80004e0:	d10c      	bne.n	80004fc <HAL_TIM_Base_MspInit+0x24>
 80004e2:	4b08      	ldr	r3, [pc, #32]	@ (8000504 <HAL_TIM_Base_MspInit+0x2c>)
 80004e4:	f8d3 20f0 	ldr.w	r2, [r3, #240]	@ 0xf0
 80004e8:	f042 0201 	orr.w	r2, r2, #1
 80004ec:	f8c3 20f0 	str.w	r2, [r3, #240]	@ 0xf0
 80004f0:	f8d3 30f0 	ldr.w	r3, [r3, #240]	@ 0xf0
 80004f4:	f003 0301 	and.w	r3, r3, #1
 80004f8:	9301      	str	r3, [sp, #4]
 80004fa:	9b01      	ldr	r3, [sp, #4]
 80004fc:	b002      	add	sp, #8
 80004fe:	4770      	bx	lr
 8000500:	40010000 	.word	0x40010000
 8000504:	58024400 	.word	0x58024400

08000508 <HAL_TIM_MspPostInit>:
 8000508:	b510      	push	{r4, lr}
 800050a:	b086      	sub	sp, #24
 800050c:	4604      	mov	r4, r0
 800050e:	2214      	movs	r2, #20
 8000510:	2100      	movs	r1, #0
 8000512:	a801      	add	r0, sp, #4
 8000514:	f001 fbdc 	bl	8001cd0 <memset>
 8000518:	6822      	ldr	r2, [r4, #0]
 800051a:	4b0e      	ldr	r3, [pc, #56]	@ (8000554 <HAL_TIM_MspPostInit+0x4c>)
 800051c:	429a      	cmp	r2, r3
 800051e:	d117      	bne.n	8000550 <HAL_TIM_MspPostInit+0x48>
 8000520:	4b0d      	ldr	r3, [pc, #52]	@ (8000558 <HAL_TIM_MspPostInit+0x50>)
 8000522:	a901      	add	r1, sp, #4
 8000524:	480d      	ldr	r0, [pc, #52]	@ (800055c <HAL_TIM_MspPostInit+0x54>)
 8000526:	f8d3 20e0 	ldr.w	r2, [r3, #224]	@ 0xe0
 800052a:	f042 0210 	orr.w	r2, r2, #16
 800052e:	f8c3 20e0 	str.w	r2, [r3, #224]	@ 0xe0
 8000532:	f44f 7200 	mov.w	r2, #512	@ 0x200
 8000536:	f8d3 30e0 	ldr.w	r3, [r3, #224]	@ 0xe0
 800053a:	f003 0310 	and.w	r3, r3, #16
 800053e:	9300      	str	r3, [sp, #0]
 8000540:	9b00      	ldr	r3, [sp, #0]
 8000542:	2302      	movs	r3, #2
 8000544:	e9cd 2301 	strd	r2, r3, [sp, #4]
 8000548:	2301      	movs	r3, #1
 800054a:	9305      	str	r3, [sp, #20]
 800054c:	f000 f9ca 	bl	80008e4 <HAL_GPIO_Init>
 8000550:	b006      	add	sp, #24
 8000552:	bd10      	pop	{r4, pc}
 8000554:	40010000 	.word	0x40010000
 8000558:	58024400 	.word	0x58024400
 800055c:	58021000 	.word	0x58021000

08000560 <NMI_Handler>:
 8000560:	e7fe      	b.n	8000560 <NMI_Handler>

08000562 <HardFault_Handler>:
 8000562:	e7fe      	b.n	8000562 <HardFault_Handler>

08000564 <MemManage_Handler>:
 8000564:	e7fe      	b.n	8000564 <MemManage_Handler>

08000566 <BusFault_Handler>:
 8000566:	e7fe      	b.n	8000566 <BusFault_Handler>

08000568 <UsageFault_Handler>:
 8000568:	e7fe      	b.n	8000568 <UsageFault_Handler>

0800056a <SVC_Handler>:
 800056a:	4770      	bx	lr

0800056c <DebugMon_Handler>:
 800056c:	4770      	bx	lr

0800056e <PendSV_Handler>:
 800056e:	4770      	bx	lr

08000570 <SysTick_Handler>:
 8000570:	f000 b8fe 	b.w	8000770 <HAL_IncTick>

08000574 <SystemInit>:
 8000574:	4a2e      	ldr	r2, [pc, #184]	@ (8000630 <SystemInit+0xbc>)
 8000576:	f8d2 3088 	ldr.w	r3, [r2, #136]	@ 0x88
 800057a:	f443 0370 	orr.w	r3, r3, #15728640	@ 0xf00000
 800057e:	f8c2 3088 	str.w	r3, [r2, #136]	@ 0x88
 8000582:	4a2c      	ldr	r2, [pc, #176]	@ (8000634 <SystemInit+0xc0>)
 8000584:	6813      	ldr	r3, [r2, #0]
 8000586:	f003 030f 	and.w	r3, r3, #15
 800058a:	2b06      	cmp	r3, #6
 800058c:	d805      	bhi.n	800059a <SystemInit+0x26>
 800058e:	6813      	ldr	r3, [r2, #0]
 8000590:	f023 030f 	bic.w	r3, r3, #15
 8000594:	f043 0307 	orr.w	r3, r3, #7
 8000598:	6013      	str	r3, [r2, #0]
 800059a:	4b27      	ldr	r3, [pc, #156]	@ (8000638 <SystemInit+0xc4>)
 800059c:	681a      	ldr	r2, [r3, #0]
 800059e:	f042 0201 	orr.w	r2, r2, #1
 80005a2:	601a      	str	r2, [r3, #0]
 80005a4:	2200      	movs	r2, #0
 80005a6:	611a      	str	r2, [r3, #16]
 80005a8:	4a24      	ldr	r2, [pc, #144]	@ (800063c <SystemInit+0xc8>)
 80005aa:	6819      	ldr	r1, [r3, #0]
 80005ac:	400a      	ands	r2, r1
 80005ae:	4921      	ldr	r1, [pc, #132]	@ (8000634 <SystemInit+0xc0>)
 80005b0:	601a      	str	r2, [r3, #0]
 80005b2:	680a      	ldr	r2, [r1, #0]
 80005b4:	0710      	lsls	r0, r2, #28
 80005b6:	d505      	bpl.n	80005c4 <SystemInit+0x50>
 80005b8:	680a      	ldr	r2, [r1, #0]
 80005ba:	f022 020f 	bic.w	r2, r2, #15
 80005be:	f042 0207 	orr.w	r2, r2, #7
 80005c2:	600a      	str	r2, [r1, #0]
 80005c4:	2200      	movs	r2, #0
 80005c6:	491e      	ldr	r1, [pc, #120]	@ (8000640 <SystemInit+0xcc>)
 80005c8:	619a      	str	r2, [r3, #24]
 80005ca:	61da      	str	r2, [r3, #28]
 80005cc:	621a      	str	r2, [r3, #32]
 80005ce:	6299      	str	r1, [r3, #40]	@ 0x28
 80005d0:	491c      	ldr	r1, [pc, #112]	@ (8000644 <SystemInit+0xd0>)
 80005d2:	62d9      	str	r1, [r3, #44]	@ 0x2c
 80005d4:	491c      	ldr	r1, [pc, #112]	@ (8000648 <SystemInit+0xd4>)
 80005d6:	6319      	str	r1, [r3, #48]	@ 0x30
 80005d8:	635a      	str	r2, [r3, #52]	@ 0x34
 80005da:	6399      	str	r1, [r3, #56]	@ 0x38
 80005dc:	63da      	str	r2, [r3, #60]	@ 0x3c
 80005de:	6419      	str	r1, [r3, #64]	@ 0x40
 80005e0:	645a      	str	r2, [r3, #68]	@ 0x44
 80005e2:	6819      	ldr	r1, [r3, #0]
 80005e4:	f421 2180 	bic.w	r1, r1, #262144	@ 0x40000
 80005e8:	6019      	str	r1, [r3, #0]
 80005ea:	661a      	str	r2, [r3, #96]	@ 0x60
 80005ec:	4b17      	ldr	r3, [pc, #92]	@ (800064c <SystemInit+0xd8>)
 80005ee:	681b      	ldr	r3, [r3, #0]
 80005f0:	f36f 030f 	bfc	r3, #0, #16
 80005f4:	f1b3 5f00 	cmp.w	r3, #536870912	@ 0x20000000
 80005f8:	d203      	bcs.n	8000602 <SystemInit+0x8e>
 80005fa:	4b15      	ldr	r3, [pc, #84]	@ (8000650 <SystemInit+0xdc>)
 80005fc:	2201      	movs	r2, #1
 80005fe:	f8c3 2108 	str.w	r2, [r3, #264]	@ 0x108
 8000602:	4b0d      	ldr	r3, [pc, #52]	@ (8000638 <SystemInit+0xc4>)
 8000604:	f8d3 20d4 	ldr.w	r2, [r3, #212]	@ 0xd4
 8000608:	04d2      	lsls	r2, r2, #19
 800060a:	d40f      	bmi.n	800062c <SystemInit+0xb8>
 800060c:	f8d3 20d4 	ldr.w	r2, [r3, #212]	@ 0xd4
 8000610:	f243 01d2 	movw	r1, #12498	@ 0x30d2
 8000614:	f442 5280 	orr.w	r2, r2, #4096	@ 0x1000
 8000618:	f8c3 20d4 	str.w	r2, [r3, #212]	@ 0xd4
 800061c:	4a0d      	ldr	r2, [pc, #52]	@ (8000654 <SystemInit+0xe0>)
 800061e:	6011      	str	r1, [r2, #0]
 8000620:	f8d3 20d4 	ldr.w	r2, [r3, #212]	@ 0xd4
 8000624:	f422 5280 	bic.w	r2, r2, #4096	@ 0x1000
 8000628:	f8c3 20d4 	str.w	r2, [r3, #212]	@ 0xd4
 800062c:	4770      	bx	lr
 800062e:	bf00      	nop
 8000630:	e000ed00 	.word	0xe000ed00
 8000634:	52002000 	.word	0x52002000
 8000638:	58024400 	.word	0x58024400
 800063c:	eaf6ed7f 	.word	0xeaf6ed7f
 8000640:	02020200 	.word	0x02020200
 8000644:	01ff0000 	.word	0x01ff0000
 8000648:	01010280 	.word	0x01010280
 800064c:	5c001000 	.word	0x5c001000
 8000650:	51008000 	.word	0x51008000
 8000654:	52004000 	.word	0x52004000

08000658 <ExitRun0Mode>:
 8000658:	4b04      	ldr	r3, [pc, #16]	@ (800066c <ExitRun0Mode+0x14>)
 800065a:	68da      	ldr	r2, [r3, #12]
 800065c:	f042 0202 	orr.w	r2, r2, #2
 8000660:	60da      	str	r2, [r3, #12]
 8000662:	685a      	ldr	r2, [r3, #4]
 8000664:	0492      	lsls	r2, r2, #18
 8000666:	d5fc      	bpl.n	8000662 <ExitRun0Mode+0xa>
 8000668:	4770      	bx	lr
 800066a:	bf00      	nop
 800066c:	58024800 	.word	0x58024800

08000670 <Reset_Handler>:
 8000670:	f8df d038 	ldr.w	sp, [pc, #56]	@ 80006ac <LoopFillZerobss+0xe>
 8000674:	f7ff fff0 	bl	8000658 <ExitRun0Mode>
 8000678:	f7ff ff7c 	bl	8000574 <SystemInit>
 800067c:	480c      	ldr	r0, [pc, #48]	@ (80006b0 <LoopFillZerobss+0x12>)
 800067e:	490d      	ldr	r1, [pc, #52]	@ (80006b4 <LoopFillZerobss+0x16>)
 8000680:	4a0d      	ldr	r2, [pc, #52]	@ (80006b8 <LoopFillZerobss+0x1a>)
 8000682:	2300      	movs	r3, #0
 8000684:	e002      	b.n	800068c <LoopCopyDataInit>

08000686 <CopyDataInit>:
 8000686:	58d4      	ldr	r4, [r2, r3]
 8000688:	50c4      	str	r4, [r0, r3]
 800068a:	3304      	adds	r3, #4

0800068c <LoopCopyDataInit>:
 800068c:	18c4      	adds	r4, r0, r3
 800068e:	428c      	cmp	r4, r1
 8000690:	d3f9      	bcc.n	8000686 <CopyDataInit>
 8000692:	4a0a      	ldr	r2, [pc, #40]	@ (80006bc <LoopFillZerobss+0x1e>)
 8000694:	4c0a      	ldr	r4, [pc, #40]	@ (80006c0 <LoopFillZerobss+0x22>)
 8000696:	2300      	movs	r3, #0
 8000698:	e001      	b.n	800069e <LoopFillZerobss>

0800069a <FillZerobss>:
 800069a:	6013      	str	r3, [r2, #0]
 800069c:	3204      	adds	r2, #4

0800069e <LoopFillZerobss>:
 800069e:	42a2      	cmp	r2, r4
 80006a0:	d3fb      	bcc.n	800069a <FillZerobss>
 80006a2:	f001 fb1d 	bl	8001ce0 <__libc_init_array>
 80006a6:	f7ff fe65 	bl	8000374 <main>
 80006aa:	4770      	bx	lr
 80006ac:	24080000 	.word	0x24080000
 80006b0:	24000000 	.word	0x24000000
 80006b4:	24000010 	.word	0x24000010
 80006b8:	08001d58 	.word	0x08001d58
 80006bc:	24000010 	.word	0x24000010
 80006c0:	2400007c 	.word	0x2400007c

080006c4 <ADC3_IRQHandler>:
 80006c4:	e7fe      	b.n	80006c4 <ADC3_IRQHandler>
	...

080006c8 <HAL_InitTick>:
 80006c8:	b538      	push	{r3, r4, r5, lr}
 80006ca:	4b0f      	ldr	r3, [pc, #60]	@ (8000708 <HAL_InitTick+0x40>)
 80006cc:	4605      	mov	r5, r0
 80006ce:	781a      	ldrb	r2, [r3, #0]
 80006d0:	b90a      	cbnz	r2, 80006d6 <HAL_InitTick+0xe>
 80006d2:	2001      	movs	r0, #1
 80006d4:	bd38      	pop	{r3, r4, r5, pc}
 80006d6:	f44f 737a 	mov.w	r3, #1000	@ 0x3e8
 80006da:	fbb3 f3f2 	udiv	r3, r3, r2
 80006de:	4a0b      	ldr	r2, [pc, #44]	@ (800070c <HAL_InitTick+0x44>)
 80006e0:	6810      	ldr	r0, [r2, #0]
 80006e2:	fbb0 f0f3 	udiv	r0, r0, r3
 80006e6:	f000 f89f 	bl	8000828 <HAL_SYSTICK_Config>
 80006ea:	4604      	mov	r4, r0
 80006ec:	2800      	cmp	r0, #0
 80006ee:	d1f0      	bne.n	80006d2 <HAL_InitTick+0xa>
 80006f0:	2d0f      	cmp	r5, #15
 80006f2:	d8ee      	bhi.n	80006d2 <HAL_InitTick+0xa>
 80006f4:	4602      	mov	r2, r0
 80006f6:	4629      	mov	r1, r5
 80006f8:	f04f 30ff 	mov.w	r0, #4294967295	@ 0xffffffff
 80006fc:	f000 f862 	bl	80007c4 <HAL_NVIC_SetPriority>
 8000700:	4b03      	ldr	r3, [pc, #12]	@ (8000710 <HAL_InitTick+0x48>)
 8000702:	4620      	mov	r0, r4
 8000704:	601d      	str	r5, [r3, #0]
 8000706:	e7e5      	b.n	80006d4 <HAL_InitTick+0xc>
 8000708:	24000008 	.word	0x24000008
 800070c:	24000004 	.word	0x24000004
 8000710:	2400000c 	.word	0x2400000c

08000714 <HAL_Init>:
 8000714:	b510      	push	{r4, lr}
 8000716:	2003      	movs	r0, #3
 8000718:	f000 f842 	bl	80007a0 <HAL_NVIC_SetPriorityGrouping>
 800071c:	f000 fc96 	bl	800104c <HAL_RCC_GetSysClockFreq>
 8000720:	490f      	ldr	r1, [pc, #60]	@ (8000760 <HAL_Init+0x4c>)
 8000722:	4a10      	ldr	r2, [pc, #64]	@ (8000764 <HAL_Init+0x50>)
 8000724:	698b      	ldr	r3, [r1, #24]
 8000726:	f3c3 2303 	ubfx	r3, r3, #8, #4
 800072a:	5cd3      	ldrb	r3, [r2, r3]
 800072c:	f003 031f 	and.w	r3, r3, #31
 8000730:	40d8      	lsrs	r0, r3
 8000732:	698b      	ldr	r3, [r1, #24]
 8000734:	f003 030f 	and.w	r3, r3, #15
 8000738:	5cd3      	ldrb	r3, [r2, r3]
 800073a:	4a0b      	ldr	r2, [pc, #44]	@ (8000768 <HAL_Init+0x54>)
 800073c:	f003 031f 	and.w	r3, r3, #31
 8000740:	fa20 f303 	lsr.w	r3, r0, r3
 8000744:	6013      	str	r3, [r2, #0]
 8000746:	4b09      	ldr	r3, [pc, #36]	@ (800076c <HAL_Init+0x58>)
 8000748:	6018      	str	r0, [r3, #0]
 800074a:	200f      	movs	r0, #15
 800074c:	f7ff ffbc 	bl	80006c8 <HAL_InitTick>
 8000750:	4604      	mov	r4, r0
 8000752:	b918      	cbnz	r0, 800075c <HAL_Init+0x48>
 8000754:	f7ff feae 	bl	80004b4 <HAL_MspInit>
 8000758:	4620      	mov	r0, r4
 800075a:	bd10      	pop	{r4, pc}
 800075c:	2401      	movs	r4, #1
 800075e:	e7fb      	b.n	8000758 <HAL_Init+0x44>
 8000760:	58024400 	.word	0x58024400
 8000764:	08001d40 	.word	0x08001d40
 8000768:	24000000 	.word	0x24000000
 800076c:	24000004 	.word	0x24000004

08000770 <HAL_IncTick>:
 8000770:	4a03      	ldr	r2, [pc, #12]	@ (8000780 <HAL_IncTick+0x10>)
 8000772:	4b04      	ldr	r3, [pc, #16]	@ (8000784 <HAL_IncTick+0x14>)
 8000774:	6811      	ldr	r1, [r2, #0]
 8000776:	781b      	ldrb	r3, [r3, #0]
 8000778:	440b      	add	r3, r1
 800077a:	6013      	str	r3, [r2, #0]
 800077c:	4770      	bx	lr
 800077e:	bf00      	nop
 8000780:	24000078 	.word	0x24000078
 8000784:	24000008 	.word	0x24000008

08000788 <HAL_GetTick>:
 8000788:	4b01      	ldr	r3, [pc, #4]	@ (8000790 <HAL_GetTick+0x8>)
 800078a:	6818      	ldr	r0, [r3, #0]
 800078c:	4770      	bx	lr
 800078e:	bf00      	nop
 8000790:	24000078 	.word	0x24000078

08000794 <HAL_GetREVID>:
 8000794:	4b01      	ldr	r3, [pc, #4]	@ (800079c <HAL_GetREVID+0x8>)
 8000796:	6818      	ldr	r0, [r3, #0]
 8000798:	0c00      	lsrs	r0, r0, #16
 800079a:	4770      	bx	lr
 800079c:	5c001000 	.word	0x5c001000

080007a0 <HAL_NVIC_SetPriorityGrouping>:
 80007a0:	4907      	ldr	r1, [pc, #28]	@ (80007c0 <HAL_NVIC_SetPriorityGrouping+0x20>)
 80007a2:	0203      	lsls	r3, r0, #8
 80007a4:	68ca      	ldr	r2, [r1, #12]
 80007a6:	f403 63e0 	and.w	r3, r3, #1792	@ 0x700
 80007aa:	f422 62e0 	bic.w	r2, r2, #1792	@ 0x700
 80007ae:	0412      	lsls	r2, r2, #16
 80007b0:	0c12      	lsrs	r2, r2, #16
 80007b2:	4313      	orrs	r3, r2
 80007b4:	f043 63bf 	orr.w	r3, r3, #100139008	@ 0x5f80000
 80007b8:	f443 3300 	orr.w	r3, r3, #131072	@ 0x20000
 80007bc:	60cb      	str	r3, [r1, #12]
 80007be:	4770      	bx	lr
 80007c0:	e000ed00 	.word	0xe000ed00

080007c4 <HAL_NVIC_SetPriority>:
 80007c4:	4b16      	ldr	r3, [pc, #88]	@ (8000820 <HAL_NVIC_SetPriority+0x5c>)
 80007c6:	b530      	push	{r4, r5, lr}
 80007c8:	68dc      	ldr	r4, [r3, #12]
 80007ca:	f3c4 2402 	ubfx	r4, r4, #8, #3
 80007ce:	f1c4 0307 	rsb	r3, r4, #7
 80007d2:	1d25      	adds	r5, r4, #4
 80007d4:	2b04      	cmp	r3, #4
 80007d6:	bf28      	it	cs
 80007d8:	2304      	movcs	r3, #4
 80007da:	2d06      	cmp	r5, #6
 80007dc:	f04f 35ff 	mov.w	r5, #4294967295	@ 0xffffffff
 80007e0:	bf8c      	ite	hi
 80007e2:	3c03      	subhi	r4, #3
 80007e4:	2400      	movls	r4, #0
 80007e6:	fa05 f303 	lsl.w	r3, r5, r3
 80007ea:	2800      	cmp	r0, #0
 80007ec:	fa05 f504 	lsl.w	r5, r5, r4
 80007f0:	ea21 0303 	bic.w	r3, r1, r3
 80007f4:	ea22 0205 	bic.w	r2, r2, r5
 80007f8:	fa03 f304 	lsl.w	r3, r3, r4
 80007fc:	ea43 0302 	orr.w	r3, r3, r2
 8000800:	ea4f 1303 	mov.w	r3, r3, lsl #4
 8000804:	b2db      	uxtb	r3, r3
 8000806:	db06      	blt.n	8000816 <HAL_NVIC_SetPriority+0x52>
 8000808:	f100 4060 	add.w	r0, r0, #3758096384	@ 0xe0000000
 800080c:	f500 4061 	add.w	r0, r0, #57600	@ 0xe100
 8000810:	f880 3300 	strb.w	r3, [r0, #768]	@ 0x300
 8000814:	bd30      	pop	{r4, r5, pc}
 8000816:	f000 000f 	and.w	r0, r0, #15
 800081a:	4a02      	ldr	r2, [pc, #8]	@ (8000824 <HAL_NVIC_SetPriority+0x60>)
 800081c:	5413      	strb	r3, [r2, r0]
 800081e:	e7f9      	b.n	8000814 <HAL_NVIC_SetPriority+0x50>
 8000820:	e000ed00 	.word	0xe000ed00
 8000824:	e000ed14 	.word	0xe000ed14

08000828 <HAL_SYSTICK_Config>:
 8000828:	3801      	subs	r0, #1
 800082a:	f1b0 7f80 	cmp.w	r0, #16777216	@ 0x1000000
 800082e:	d20b      	bcs.n	8000848 <HAL_SYSTICK_Config+0x20>
 8000830:	f04f 23e0 	mov.w	r3, #3758153728	@ 0xe000e000
 8000834:	4a05      	ldr	r2, [pc, #20]	@ (800084c <HAL_SYSTICK_Config+0x24>)
 8000836:	21f0      	movs	r1, #240	@ 0xf0
 8000838:	6158      	str	r0, [r3, #20]
 800083a:	2000      	movs	r0, #0
 800083c:	f882 1023 	strb.w	r1, [r2, #35]	@ 0x23
 8000840:	2207      	movs	r2, #7
 8000842:	6198      	str	r0, [r3, #24]
 8000844:	611a      	str	r2, [r3, #16]
 8000846:	4770      	bx	lr
 8000848:	2001      	movs	r0, #1
 800084a:	4770      	bx	lr
 800084c:	e000ed00 	.word	0xe000ed00

08000850 <HAL_MPU_Disable>:
 8000850:	f3bf 8f5f 	dmb	sy
 8000854:	4b04      	ldr	r3, [pc, #16]	@ (8000868 <HAL_MPU_Disable+0x18>)
 8000856:	6a5a      	ldr	r2, [r3, #36]	@ 0x24
 8000858:	f422 3280 	bic.w	r2, r2, #65536	@ 0x10000
 800085c:	625a      	str	r2, [r3, #36]	@ 0x24
 800085e:	2200      	movs	r2, #0
 8000860:	f8c3 2094 	str.w	r2, [r3, #148]	@ 0x94
 8000864:	4770      	bx	lr
 8000866:	bf00      	nop
 8000868:	e000ed00 	.word	0xe000ed00

0800086c <HAL_MPU_Enable>:
 800086c:	4b06      	ldr	r3, [pc, #24]	@ (8000888 <HAL_MPU_Enable+0x1c>)
 800086e:	f040 0001 	orr.w	r0, r0, #1
 8000872:	f8c3 0094 	str.w	r0, [r3, #148]	@ 0x94
 8000876:	6a5a      	ldr	r2, [r3, #36]	@ 0x24
 8000878:	f442 3280 	orr.w	r2, r2, #65536	@ 0x10000
 800087c:	625a      	str	r2, [r3, #36]	@ 0x24
 800087e:	f3bf 8f4f 	dsb	sy
 8000882:	f3bf 8f6f 	isb	sy
 8000886:	4770      	bx	lr
 8000888:	e000ed00 	.word	0xe000ed00

0800088c <HAL_MPU_ConfigRegion>:
 800088c:	7843      	ldrb	r3, [r0, #1]
 800088e:	4a14      	ldr	r2, [pc, #80]	@ (80008e0 <HAL_MPU_ConfigRegion+0x54>)
 8000890:	f8c2 3098 	str.w	r3, [r2, #152]	@ 0x98
 8000894:	f8d2 30a0 	ldr.w	r3, [r2, #160]	@ 0xa0
 8000898:	f023 0301 	bic.w	r3, r3, #1
 800089c:	f8c2 30a0 	str.w	r3, [r2, #160]	@ 0xa0
 80008a0:	6843      	ldr	r3, [r0, #4]
 80008a2:	f8c2 309c 	str.w	r3, [r2, #156]	@ 0x9c
 80008a6:	7ac3      	ldrb	r3, [r0, #11]
 80008a8:	7b01      	ldrb	r1, [r0, #12]
 80008aa:	061b      	lsls	r3, r3, #24
 80008ac:	ea43 7301 	orr.w	r3, r3, r1, lsl #28
 80008b0:	7801      	ldrb	r1, [r0, #0]
 80008b2:	430b      	orrs	r3, r1
 80008b4:	7a81      	ldrb	r1, [r0, #10]
 80008b6:	ea43 43c1 	orr.w	r3, r3, r1, lsl #19
 80008ba:	7b41      	ldrb	r1, [r0, #13]
 80008bc:	ea43 4381 	orr.w	r3, r3, r1, lsl #18
 80008c0:	7b81      	ldrb	r1, [r0, #14]
 80008c2:	ea43 4341 	orr.w	r3, r3, r1, lsl #17
 80008c6:	7bc1      	ldrb	r1, [r0, #15]
 80008c8:	ea43 4301 	orr.w	r3, r3, r1, lsl #16
 80008cc:	7a41      	ldrb	r1, [r0, #9]
 80008ce:	ea43 2301 	orr.w	r3, r3, r1, lsl #8
 80008d2:	7a01      	ldrb	r1, [r0, #8]
 80008d4:	ea43 0341 	orr.w	r3, r3, r1, lsl #1
 80008d8:	f8c2 30a0 	str.w	r3, [r2, #160]	@ 0xa0
 80008dc:	4770      	bx	lr
 80008de:	bf00      	nop
 80008e0:	e000ed00 	.word	0xe000ed00

080008e4 <HAL_GPIO_Init>:
 80008e4:	e92d 4ff7 	stmdb	sp!, {r0, r1, r2, r4, r5, r6, r7, r8, r9, sl, fp, lr}
 80008e8:	2300      	movs	r3, #0
 80008ea:	f8df 91c4 	ldr.w	r9, [pc, #452]	@ 8000ab0 <HAL_GPIO_Init+0x1cc>
 80008ee:	f04f 44b0 	mov.w	r4, #1476395008	@ 0x58000000
 80008f2:	680a      	ldr	r2, [r1, #0]
 80008f4:	fa32 f503 	lsrs.w	r5, r2, r3
 80008f8:	d102      	bne.n	8000900 <HAL_GPIO_Init+0x1c>
 80008fa:	b003      	add	sp, #12
 80008fc:	e8bd 8ff0 	ldmia.w	sp!, {r4, r5, r6, r7, r8, r9, sl, fp, pc}
 8000900:	2501      	movs	r5, #1
 8000902:	fa05 f803 	lsl.w	r8, r5, r3
 8000906:	ea18 0202 	ands.w	r2, r8, r2
 800090a:	f000 80bb 	beq.w	8000a84 <HAL_GPIO_Init+0x1a0>
 800090e:	684e      	ldr	r6, [r1, #4]
 8000910:	2703      	movs	r7, #3
 8000912:	ea4f 0e43 	mov.w	lr, r3, lsl #1
 8000916:	f006 0503 	and.w	r5, r6, #3
 800091a:	fa07 fc0e 	lsl.w	ip, r7, lr
 800091e:	1e6f      	subs	r7, r5, #1
 8000920:	ea6f 0c0c 	mvn.w	ip, ip
 8000924:	2f01      	cmp	r7, #1
 8000926:	d834      	bhi.n	8000992 <HAL_GPIO_Init+0xae>
 8000928:	6887      	ldr	r7, [r0, #8]
 800092a:	ea07 0a0c 	and.w	sl, r7, ip
 800092e:	68cf      	ldr	r7, [r1, #12]
 8000930:	fa07 f70e 	lsl.w	r7, r7, lr
 8000934:	ea47 070a 	orr.w	r7, r7, sl
 8000938:	6087      	str	r7, [r0, #8]
 800093a:	6847      	ldr	r7, [r0, #4]
 800093c:	ea27 0808 	bic.w	r8, r7, r8
 8000940:	f3c6 1700 	ubfx	r7, r6, #4, #1
 8000944:	409f      	lsls	r7, r3
 8000946:	ea47 0708 	orr.w	r7, r7, r8
 800094a:	6047      	str	r7, [r0, #4]
 800094c:	68c7      	ldr	r7, [r0, #12]
 800094e:	2d02      	cmp	r5, #2
 8000950:	ea07 080c 	and.w	r8, r7, ip
 8000954:	688f      	ldr	r7, [r1, #8]
 8000956:	fa07 f70e 	lsl.w	r7, r7, lr
 800095a:	ea47 0708 	orr.w	r7, r7, r8
 800095e:	60c7      	str	r7, [r0, #12]
 8000960:	d119      	bne.n	8000996 <HAL_GPIO_Init+0xb2>
 8000962:	ea4f 08d3 	mov.w	r8, r3, lsr #3
 8000966:	f003 0a07 	and.w	sl, r3, #7
 800096a:	f04f 0b0f 	mov.w	fp, #15
 800096e:	eb00 0888 	add.w	r8, r0, r8, lsl #2
 8000972:	ea4f 0a8a 	mov.w	sl, sl, lsl #2
 8000976:	f8d8 7020 	ldr.w	r7, [r8, #32]
 800097a:	fa0b fb0a 	lsl.w	fp, fp, sl
 800097e:	ea27 0b0b 	bic.w	fp, r7, fp
 8000982:	690f      	ldr	r7, [r1, #16]
 8000984:	fa07 f70a 	lsl.w	r7, r7, sl
 8000988:	ea47 070b 	orr.w	r7, r7, fp
 800098c:	f8c8 7020 	str.w	r7, [r8, #32]
 8000990:	e001      	b.n	8000996 <HAL_GPIO_Init+0xb2>
 8000992:	2d03      	cmp	r5, #3
 8000994:	d1da      	bne.n	800094c <HAL_GPIO_Init+0x68>
 8000996:	6807      	ldr	r7, [r0, #0]
 8000998:	fa05 f50e 	lsl.w	r5, r5, lr
 800099c:	f416 3f40 	tst.w	r6, #196608	@ 0x30000
 80009a0:	ea07 070c 	and.w	r7, r7, ip
 80009a4:	ea45 0507 	orr.w	r5, r5, r7
 80009a8:	6005      	str	r5, [r0, #0]
 80009aa:	d06b      	beq.n	8000a84 <HAL_GPIO_Init+0x1a0>
 80009ac:	f8d9 50f4 	ldr.w	r5, [r9, #244]	@ 0xf4
 80009b0:	f023 0703 	bic.w	r7, r3, #3
 80009b4:	f003 0c03 	and.w	ip, r3, #3
 80009b8:	f04f 0e0f 	mov.w	lr, #15
 80009bc:	f045 0502 	orr.w	r5, r5, #2
 80009c0:	f107 47b0 	add.w	r7, r7, #1476395008	@ 0x58000000
 80009c4:	ea4f 0c8c 	mov.w	ip, ip, lsl #2
 80009c8:	f8c9 50f4 	str.w	r5, [r9, #244]	@ 0xf4
 80009cc:	f507 6780 	add.w	r7, r7, #1024	@ 0x400
 80009d0:	f8d9 50f4 	ldr.w	r5, [r9, #244]	@ 0xf4
 80009d4:	fa0e fe0c 	lsl.w	lr, lr, ip
 80009d8:	f005 0502 	and.w	r5, r5, #2
 80009dc:	9501      	str	r5, [sp, #4]
 80009de:	9d01      	ldr	r5, [sp, #4]
 80009e0:	68bd      	ldr	r5, [r7, #8]
 80009e2:	ea25 0e0e 	bic.w	lr, r5, lr
 80009e6:	4d31      	ldr	r5, [pc, #196]	@ (8000aac <HAL_GPIO_Init+0x1c8>)
 80009e8:	42a8      	cmp	r0, r5
 80009ea:	d04d      	beq.n	8000a88 <HAL_GPIO_Init+0x1a4>
 80009ec:	f505 6580 	add.w	r5, r5, #1024	@ 0x400
 80009f0:	42a8      	cmp	r0, r5
 80009f2:	d04b      	beq.n	8000a8c <HAL_GPIO_Init+0x1a8>
 80009f4:	f505 6580 	add.w	r5, r5, #1024	@ 0x400
 80009f8:	42a8      	cmp	r0, r5
 80009fa:	d049      	beq.n	8000a90 <HAL_GPIO_Init+0x1ac>
 80009fc:	f505 6580 	add.w	r5, r5, #1024	@ 0x400
 8000a00:	42a8      	cmp	r0, r5
 8000a02:	d047      	beq.n	8000a94 <HAL_GPIO_Init+0x1b0>
 8000a04:	f505 6580 	add.w	r5, r5, #1024	@ 0x400
 8000a08:	42a8      	cmp	r0, r5
 8000a0a:	d045      	beq.n	8000a98 <HAL_GPIO_Init+0x1b4>
 8000a0c:	f505 6580 	add.w	r5, r5, #1024	@ 0x400
 8000a10:	42a8      	cmp	r0, r5
 8000a12:	d043      	beq.n	8000a9c <HAL_GPIO_Init+0x1b8>
 8000a14:	f505 6580 	add.w	r5, r5, #1024	@ 0x400
 8000a18:	42a8      	cmp	r0, r5
 8000a1a:	d041      	beq.n	8000aa0 <HAL_GPIO_Init+0x1bc>
 8000a1c:	f505 6580 	add.w	r5, r5, #1024	@ 0x400
 8000a20:	42a8      	cmp	r0, r5
 8000a22:	d03f      	beq.n	8000aa4 <HAL_GPIO_Init+0x1c0>
 8000a24:	f505 6580 	add.w	r5, r5, #1024	@ 0x400
 8000a28:	42a8      	cmp	r0, r5
 8000a2a:	d03d      	beq.n	8000aa8 <HAL_GPIO_Init+0x1c4>
 8000a2c:	f505 6580 	add.w	r5, r5, #1024	@ 0x400
 8000a30:	42a8      	cmp	r0, r5
 8000a32:	bf14      	ite	ne
 8000a34:	250a      	movne	r5, #10
 8000a36:	2509      	moveq	r5, #9
 8000a38:	fa05 f50c 	lsl.w	r5, r5, ip
 8000a3c:	f416 1f80 	tst.w	r6, #1048576	@ 0x100000
 8000a40:	ea45 050e 	orr.w	r5, r5, lr
 8000a44:	60bd      	str	r5, [r7, #8]
 8000a46:	ea6f 0702 	mvn.w	r7, r2
 8000a4a:	6825      	ldr	r5, [r4, #0]
 8000a4c:	bf0c      	ite	eq
 8000a4e:	403d      	andeq	r5, r7
 8000a50:	4315      	orrne	r5, r2
 8000a52:	f416 1f00 	tst.w	r6, #2097152	@ 0x200000
 8000a56:	6025      	str	r5, [r4, #0]
 8000a58:	6865      	ldr	r5, [r4, #4]
 8000a5a:	bf0c      	ite	eq
 8000a5c:	403d      	andeq	r5, r7
 8000a5e:	4315      	orrne	r5, r2
 8000a60:	f416 3f00 	tst.w	r6, #131072	@ 0x20000
 8000a64:	6065      	str	r5, [r4, #4]
 8000a66:	f8d4 5084 	ldr.w	r5, [r4, #132]	@ 0x84
 8000a6a:	bf0c      	ite	eq
 8000a6c:	403d      	andeq	r5, r7
 8000a6e:	4315      	orrne	r5, r2
 8000a70:	03f6      	lsls	r6, r6, #15
 8000a72:	f8c4 5084 	str.w	r5, [r4, #132]	@ 0x84
 8000a76:	f8d4 5080 	ldr.w	r5, [r4, #128]	@ 0x80
 8000a7a:	bf54      	ite	pl
 8000a7c:	403d      	andpl	r5, r7
 8000a7e:	4315      	orrmi	r5, r2
 8000a80:	f8c4 5080 	str.w	r5, [r4, #128]	@ 0x80
 8000a84:	3301      	adds	r3, #1
 8000a86:	e734      	b.n	80008f2 <HAL_GPIO_Init+0xe>
 8000a88:	2500      	movs	r5, #0
 8000a8a:	e7d5      	b.n	8000a38 <HAL_GPIO_Init+0x154>
 8000a8c:	2501      	movs	r5, #1
 8000a8e:	e7d3      	b.n	8000a38 <HAL_GPIO_Init+0x154>
 8000a90:	2502      	movs	r5, #2
 8000a92:	e7d1      	b.n	8000a38 <HAL_GPIO_Init+0x154>
 8000a94:	2503      	movs	r5, #3
 8000a96:	e7cf      	b.n	8000a38 <HAL_GPIO_Init+0x154>
 8000a98:	2504      	movs	r5, #4
 8000a9a:	e7cd      	b.n	8000a38 <HAL_GPIO_Init+0x154>
 8000a9c:	2505      	movs	r5, #5
 8000a9e:	e7cb      	b.n	8000a38 <HAL_GPIO_Init+0x154>
 8000aa0:	2506      	movs	r5, #6
 8000aa2:	e7c9      	b.n	8000a38 <HAL_GPIO_Init+0x154>
 8000aa4:	2507      	movs	r5, #7
 8000aa6:	e7c7      	b.n	8000a38 <HAL_GPIO_Init+0x154>
 8000aa8:	2508      	movs	r5, #8
 8000aaa:	e7c5      	b.n	8000a38 <HAL_GPIO_Init+0x154>
 8000aac:	58020000 	.word	0x58020000
 8000ab0:	58024400 	.word	0x58024400

08000ab4 <HAL_PWREx_ConfigSupply>:
 8000ab4:	b538      	push	{r3, r4, r5, lr}
 8000ab6:	4c10      	ldr	r4, [pc, #64]	@ (8000af8 <HAL_PWREx_ConfigSupply+0x44>)
 8000ab8:	68e3      	ldr	r3, [r4, #12]
 8000aba:	f013 0f04 	tst.w	r3, #4
 8000abe:	68e3      	ldr	r3, [r4, #12]
 8000ac0:	d105      	bne.n	8000ace <HAL_PWREx_ConfigSupply+0x1a>
 8000ac2:	f003 0307 	and.w	r3, r3, #7
 8000ac6:	1a18      	subs	r0, r3, r0
 8000ac8:	bf18      	it	ne
 8000aca:	2001      	movne	r0, #1
 8000acc:	bd38      	pop	{r3, r4, r5, pc}
 8000ace:	f023 0307 	bic.w	r3, r3, #7
 8000ad2:	4318      	orrs	r0, r3
 8000ad4:	60e0      	str	r0, [r4, #12]
 8000ad6:	f7ff fe57 	bl	8000788 <HAL_GetTick>
 8000ada:	4605      	mov	r5, r0
 8000adc:	6863      	ldr	r3, [r4, #4]
 8000ade:	049b      	lsls	r3, r3, #18
 8000ae0:	d501      	bpl.n	8000ae6 <HAL_PWREx_ConfigSupply+0x32>
 8000ae2:	2000      	movs	r0, #0
 8000ae4:	e7f2      	b.n	8000acc <HAL_PWREx_ConfigSupply+0x18>
 8000ae6:	f7ff fe4f 	bl	8000788 <HAL_GetTick>
 8000aea:	1b40      	subs	r0, r0, r5
 8000aec:	f5b0 7f7a 	cmp.w	r0, #1000	@ 0x3e8
 8000af0:	d9f4      	bls.n	8000adc <HAL_PWREx_ConfigSupply+0x28>
 8000af2:	2001      	movs	r0, #1
 8000af4:	e7ea      	b.n	8000acc <HAL_PWREx_ConfigSupply+0x18>
 8000af6:	bf00      	nop
 8000af8:	58024800 	.word	0x58024800

08000afc <HAL_RCC_OscConfig>:
 8000afc:	b5f8      	push	{r3, r4, r5, r6, r7, lr}
 8000afe:	4604      	mov	r4, r0
 8000b00:	2800      	cmp	r0, #0
 8000b02:	d074      	beq.n	8000bee <HAL_RCC_OscConfig+0xf2>
 8000b04:	6803      	ldr	r3, [r0, #0]
 8000b06:	07d8      	lsls	r0, r3, #31
 8000b08:	d45e      	bmi.n	8000bc8 <HAL_RCC_OscConfig+0xcc>
 8000b0a:	6823      	ldr	r3, [r4, #0]
 8000b0c:	0799      	lsls	r1, r3, #30
 8000b0e:	f100 80ad 	bmi.w	8000c6c <HAL_RCC_OscConfig+0x170>
 8000b12:	6823      	ldr	r3, [r4, #0]
 8000b14:	06da      	lsls	r2, r3, #27
 8000b16:	d527      	bpl.n	8000b68 <HAL_RCC_OscConfig+0x6c>
 8000b18:	4a9c      	ldr	r2, [pc, #624]	@ (8000d8c <HAL_RCC_OscConfig+0x290>)
 8000b1a:	6913      	ldr	r3, [r2, #16]
 8000b1c:	6a91      	ldr	r1, [r2, #40]	@ 0x28
 8000b1e:	f003 0338 	and.w	r3, r3, #56	@ 0x38
 8000b22:	2b08      	cmp	r3, #8
 8000b24:	d007      	beq.n	8000b36 <HAL_RCC_OscConfig+0x3a>
 8000b26:	2b18      	cmp	r3, #24
 8000b28:	f040 8103 	bne.w	8000d32 <HAL_RCC_OscConfig+0x236>
 8000b2c:	f001 0303 	and.w	r3, r1, #3
 8000b30:	2b01      	cmp	r3, #1
 8000b32:	f040 80fe 	bne.w	8000d32 <HAL_RCC_OscConfig+0x236>
 8000b36:	6813      	ldr	r3, [r2, #0]
 8000b38:	05db      	lsls	r3, r3, #23
 8000b3a:	d502      	bpl.n	8000b42 <HAL_RCC_OscConfig+0x46>
 8000b3c:	69e3      	ldr	r3, [r4, #28]
 8000b3e:	2b80      	cmp	r3, #128	@ 0x80
 8000b40:	d155      	bne.n	8000bee <HAL_RCC_OscConfig+0xf2>
 8000b42:	f7ff fe27 	bl	8000794 <HAL_GetREVID>
 8000b46:	f241 0303 	movw	r3, #4099	@ 0x1003
 8000b4a:	6a21      	ldr	r1, [r4, #32]
 8000b4c:	4298      	cmp	r0, r3
 8000b4e:	4b8f      	ldr	r3, [pc, #572]	@ (8000d8c <HAL_RCC_OscConfig+0x290>)
 8000b50:	f200 80e8 	bhi.w	8000d24 <HAL_RCC_OscConfig+0x228>
 8000b54:	685a      	ldr	r2, [r3, #4]
 8000b56:	2920      	cmp	r1, #32
 8000b58:	f022 42f8 	bic.w	r2, r2, #2080374784	@ 0x7c000000
 8000b5c:	bf0c      	ite	eq
 8000b5e:	f042 4280 	orreq.w	r2, r2, #1073741824	@ 0x40000000
 8000b62:	ea42 6281 	orrne.w	r2, r2, r1, lsl #26
 8000b66:	605a      	str	r2, [r3, #4]
 8000b68:	6823      	ldr	r3, [r4, #0]
 8000b6a:	0719      	lsls	r1, r3, #28
 8000b6c:	f100 8123 	bmi.w	8000db6 <HAL_RCC_OscConfig+0x2ba>
 8000b70:	6823      	ldr	r3, [r4, #0]
 8000b72:	069a      	lsls	r2, r3, #26
 8000b74:	f100 8144 	bmi.w	8000e00 <HAL_RCC_OscConfig+0x304>
 8000b78:	6823      	ldr	r3, [r4, #0]
 8000b7a:	075d      	lsls	r5, r3, #29
 8000b7c:	d51e      	bpl.n	8000bbc <HAL_RCC_OscConfig+0xc0>
 8000b7e:	4d84      	ldr	r5, [pc, #528]	@ (8000d90 <HAL_RCC_OscConfig+0x294>)
 8000b80:	682b      	ldr	r3, [r5, #0]
 8000b82:	f443 7380 	orr.w	r3, r3, #256	@ 0x100
 8000b86:	602b      	str	r3, [r5, #0]
 8000b88:	f7ff fdfe 	bl	8000788 <HAL_GetTick>
 8000b8c:	4606      	mov	r6, r0
 8000b8e:	682b      	ldr	r3, [r5, #0]
 8000b90:	05da      	lsls	r2, r3, #23
 8000b92:	f140 815a 	bpl.w	8000e4a <HAL_RCC_OscConfig+0x34e>
 8000b96:	68a3      	ldr	r3, [r4, #8]
 8000b98:	4d7c      	ldr	r5, [pc, #496]	@ (8000d8c <HAL_RCC_OscConfig+0x290>)
 8000b9a:	2b01      	cmp	r3, #1
 8000b9c:	f040 815c 	bne.w	8000e58 <HAL_RCC_OscConfig+0x35c>
 8000ba0:	6f2b      	ldr	r3, [r5, #112]	@ 0x70
 8000ba2:	f043 0301 	orr.w	r3, r3, #1
 8000ba6:	672b      	str	r3, [r5, #112]	@ 0x70
 8000ba8:	f241 3788 	movw	r7, #5000	@ 0x1388
 8000bac:	f7ff fdec 	bl	8000788 <HAL_GetTick>
 8000bb0:	4e76      	ldr	r6, [pc, #472]	@ (8000d8c <HAL_RCC_OscConfig+0x290>)
 8000bb2:	4605      	mov	r5, r0
 8000bb4:	6f33      	ldr	r3, [r6, #112]	@ 0x70
 8000bb6:	079b      	lsls	r3, r3, #30
 8000bb8:	f140 8174 	bpl.w	8000ea4 <HAL_RCC_OscConfig+0x3a8>
 8000bbc:	6a61      	ldr	r1, [r4, #36]	@ 0x24
 8000bbe:	2900      	cmp	r1, #0
 8000bc0:	f040 8177 	bne.w	8000eb2 <HAL_RCC_OscConfig+0x3b6>
 8000bc4:	2000      	movs	r0, #0
 8000bc6:	e02b      	b.n	8000c20 <HAL_RCC_OscConfig+0x124>
 8000bc8:	4a70      	ldr	r2, [pc, #448]	@ (8000d8c <HAL_RCC_OscConfig+0x290>)
 8000bca:	6913      	ldr	r3, [r2, #16]
 8000bcc:	6a91      	ldr	r1, [r2, #40]	@ 0x28
 8000bce:	f003 0338 	and.w	r3, r3, #56	@ 0x38
 8000bd2:	2b10      	cmp	r3, #16
 8000bd4:	d005      	beq.n	8000be2 <HAL_RCC_OscConfig+0xe6>
 8000bd6:	2b18      	cmp	r3, #24
 8000bd8:	d10b      	bne.n	8000bf2 <HAL_RCC_OscConfig+0xf6>
 8000bda:	f001 0303 	and.w	r3, r1, #3
 8000bde:	2b02      	cmp	r3, #2
 8000be0:	d107      	bne.n	8000bf2 <HAL_RCC_OscConfig+0xf6>
 8000be2:	6813      	ldr	r3, [r2, #0]
 8000be4:	039a      	lsls	r2, r3, #14
 8000be6:	d590      	bpl.n	8000b0a <HAL_RCC_OscConfig+0xe>
 8000be8:	6863      	ldr	r3, [r4, #4]
 8000bea:	2b00      	cmp	r3, #0
 8000bec:	d18d      	bne.n	8000b0a <HAL_RCC_OscConfig+0xe>
 8000bee:	2001      	movs	r0, #1
 8000bf0:	e016      	b.n	8000c20 <HAL_RCC_OscConfig+0x124>
 8000bf2:	6863      	ldr	r3, [r4, #4]
 8000bf4:	4d65      	ldr	r5, [pc, #404]	@ (8000d8c <HAL_RCC_OscConfig+0x290>)
 8000bf6:	f5b3 3f80 	cmp.w	r3, #65536	@ 0x10000
 8000bfa:	d112      	bne.n	8000c22 <HAL_RCC_OscConfig+0x126>
 8000bfc:	682b      	ldr	r3, [r5, #0]
 8000bfe:	f443 3380 	orr.w	r3, r3, #65536	@ 0x10000
 8000c02:	602b      	str	r3, [r5, #0]
 8000c04:	f7ff fdc0 	bl	8000788 <HAL_GetTick>
 8000c08:	4e60      	ldr	r6, [pc, #384]	@ (8000d8c <HAL_RCC_OscConfig+0x290>)
 8000c0a:	4605      	mov	r5, r0
 8000c0c:	6833      	ldr	r3, [r6, #0]
 8000c0e:	039b      	lsls	r3, r3, #14
 8000c10:	f53f af7b 	bmi.w	8000b0a <HAL_RCC_OscConfig+0xe>
 8000c14:	f7ff fdb8 	bl	8000788 <HAL_GetTick>
 8000c18:	1b40      	subs	r0, r0, r5
 8000c1a:	2864      	cmp	r0, #100	@ 0x64
 8000c1c:	d9f6      	bls.n	8000c0c <HAL_RCC_OscConfig+0x110>
 8000c1e:	2003      	movs	r0, #3
 8000c20:	bdf8      	pop	{r3, r4, r5, r6, r7, pc}
 8000c22:	b9a3      	cbnz	r3, 8000c4e <HAL_RCC_OscConfig+0x152>
 8000c24:	682b      	ldr	r3, [r5, #0]
 8000c26:	f423 3380 	bic.w	r3, r3, #65536	@ 0x10000
 8000c2a:	602b      	str	r3, [r5, #0]
 8000c2c:	682b      	ldr	r3, [r5, #0]
 8000c2e:	f423 2380 	bic.w	r3, r3, #262144	@ 0x40000
 8000c32:	602b      	str	r3, [r5, #0]
 8000c34:	f7ff fda8 	bl	8000788 <HAL_GetTick>
 8000c38:	4606      	mov	r6, r0
 8000c3a:	682b      	ldr	r3, [r5, #0]
 8000c3c:	039f      	lsls	r7, r3, #14
 8000c3e:	f57f af64 	bpl.w	8000b0a <HAL_RCC_OscConfig+0xe>
 8000c42:	f7ff fda1 	bl	8000788 <HAL_GetTick>
 8000c46:	1b80      	subs	r0, r0, r6
 8000c48:	2864      	cmp	r0, #100	@ 0x64
 8000c4a:	d9f6      	bls.n	8000c3a <HAL_RCC_OscConfig+0x13e>
 8000c4c:	e7e7      	b.n	8000c1e <HAL_RCC_OscConfig+0x122>
 8000c4e:	f5b3 2fa0 	cmp.w	r3, #327680	@ 0x50000
 8000c52:	682b      	ldr	r3, [r5, #0]
 8000c54:	d103      	bne.n	8000c5e <HAL_RCC_OscConfig+0x162>
 8000c56:	f443 2380 	orr.w	r3, r3, #262144	@ 0x40000
 8000c5a:	602b      	str	r3, [r5, #0]
 8000c5c:	e7ce      	b.n	8000bfc <HAL_RCC_OscConfig+0x100>
 8000c5e:	f423 3380 	bic.w	r3, r3, #65536	@ 0x10000
 8000c62:	602b      	str	r3, [r5, #0]
 8000c64:	682b      	ldr	r3, [r5, #0]
 8000c66:	f423 2380 	bic.w	r3, r3, #262144	@ 0x40000
 8000c6a:	e7ca      	b.n	8000c02 <HAL_RCC_OscConfig+0x106>
 8000c6c:	4947      	ldr	r1, [pc, #284]	@ (8000d8c <HAL_RCC_OscConfig+0x290>)
 8000c6e:	68e2      	ldr	r2, [r4, #12]
 8000c70:	690b      	ldr	r3, [r1, #16]
 8000c72:	6a88      	ldr	r0, [r1, #40]	@ 0x28
 8000c74:	f013 0338 	ands.w	r3, r3, #56	@ 0x38
 8000c78:	d003      	beq.n	8000c82 <HAL_RCC_OscConfig+0x186>
 8000c7a:	2b18      	cmp	r3, #24
 8000c7c:	d12a      	bne.n	8000cd4 <HAL_RCC_OscConfig+0x1d8>
 8000c7e:	0780      	lsls	r0, r0, #30
 8000c80:	d128      	bne.n	8000cd4 <HAL_RCC_OscConfig+0x1d8>
 8000c82:	680b      	ldr	r3, [r1, #0]
 8000c84:	075b      	lsls	r3, r3, #29
 8000c86:	d501      	bpl.n	8000c8c <HAL_RCC_OscConfig+0x190>
 8000c88:	2a00      	cmp	r2, #0
 8000c8a:	d0b0      	beq.n	8000bee <HAL_RCC_OscConfig+0xf2>
 8000c8c:	4d3f      	ldr	r5, [pc, #252]	@ (8000d8c <HAL_RCC_OscConfig+0x290>)
 8000c8e:	682b      	ldr	r3, [r5, #0]
 8000c90:	f023 0319 	bic.w	r3, r3, #25
 8000c94:	4313      	orrs	r3, r2
 8000c96:	602b      	str	r3, [r5, #0]
 8000c98:	f7ff fd76 	bl	8000788 <HAL_GetTick>
 8000c9c:	4606      	mov	r6, r0
 8000c9e:	682b      	ldr	r3, [r5, #0]
 8000ca0:	075f      	lsls	r7, r3, #29
 8000ca2:	d511      	bpl.n	8000cc8 <HAL_RCC_OscConfig+0x1cc>
 8000ca4:	f7ff fd76 	bl	8000794 <HAL_GetREVID>
 8000ca8:	f241 0303 	movw	r3, #4099	@ 0x1003
 8000cac:	6922      	ldr	r2, [r4, #16]
 8000cae:	4298      	cmp	r0, r3
 8000cb0:	686b      	ldr	r3, [r5, #4]
 8000cb2:	d822      	bhi.n	8000cfa <HAL_RCC_OscConfig+0x1fe>
 8000cb4:	f423 337c 	bic.w	r3, r3, #258048	@ 0x3f000
 8000cb8:	2a40      	cmp	r2, #64	@ 0x40
 8000cba:	bf0c      	ite	eq
 8000cbc:	f443 3300 	orreq.w	r3, r3, #131072	@ 0x20000
 8000cc0:	ea43 3302 	orrne.w	r3, r3, r2, lsl #12
 8000cc4:	606b      	str	r3, [r5, #4]
 8000cc6:	e724      	b.n	8000b12 <HAL_RCC_OscConfig+0x16>
 8000cc8:	f7ff fd5e 	bl	8000788 <HAL_GetTick>
 8000ccc:	1b80      	subs	r0, r0, r6
 8000cce:	2802      	cmp	r0, #2
 8000cd0:	d9e5      	bls.n	8000c9e <HAL_RCC_OscConfig+0x1a2>
 8000cd2:	e7a4      	b.n	8000c1e <HAL_RCC_OscConfig+0x122>
 8000cd4:	4d2d      	ldr	r5, [pc, #180]	@ (8000d8c <HAL_RCC_OscConfig+0x290>)
 8000cd6:	682b      	ldr	r3, [r5, #0]
 8000cd8:	b1a2      	cbz	r2, 8000d04 <HAL_RCC_OscConfig+0x208>
 8000cda:	f023 0319 	bic.w	r3, r3, #25
 8000cde:	4313      	orrs	r3, r2
 8000ce0:	602b      	str	r3, [r5, #0]
 8000ce2:	f7ff fd51 	bl	8000788 <HAL_GetTick>
 8000ce6:	4606      	mov	r6, r0
 8000ce8:	682b      	ldr	r3, [r5, #0]
 8000cea:	0758      	lsls	r0, r3, #29
 8000cec:	d4da      	bmi.n	8000ca4 <HAL_RCC_OscConfig+0x1a8>
 8000cee:	f7ff fd4b 	bl	8000788 <HAL_GetTick>
 8000cf2:	1b80      	subs	r0, r0, r6
 8000cf4:	2802      	cmp	r0, #2
 8000cf6:	d9f7      	bls.n	8000ce8 <HAL_RCC_OscConfig+0x1ec>
 8000cf8:	e791      	b.n	8000c1e <HAL_RCC_OscConfig+0x122>
 8000cfa:	f023 43fe 	bic.w	r3, r3, #2130706432	@ 0x7f000000
 8000cfe:	ea43 6302 	orr.w	r3, r3, r2, lsl #24
 8000d02:	e7df      	b.n	8000cc4 <HAL_RCC_OscConfig+0x1c8>
 8000d04:	f023 0301 	bic.w	r3, r3, #1
 8000d08:	602b      	str	r3, [r5, #0]
 8000d0a:	f7ff fd3d 	bl	8000788 <HAL_GetTick>
 8000d0e:	4606      	mov	r6, r0
 8000d10:	682b      	ldr	r3, [r5, #0]
 8000d12:	0759      	lsls	r1, r3, #29
 8000d14:	f57f aefd 	bpl.w	8000b12 <HAL_RCC_OscConfig+0x16>
 8000d18:	f7ff fd36 	bl	8000788 <HAL_GetTick>
 8000d1c:	1b80      	subs	r0, r0, r6
 8000d1e:	2802      	cmp	r0, #2
 8000d20:	d9f6      	bls.n	8000d10 <HAL_RCC_OscConfig+0x214>
 8000d22:	e77c      	b.n	8000c1e <HAL_RCC_OscConfig+0x122>
 8000d24:	68da      	ldr	r2, [r3, #12]
 8000d26:	f022 527c 	bic.w	r2, r2, #1056964608	@ 0x3f000000
 8000d2a:	ea42 6201 	orr.w	r2, r2, r1, lsl #24
 8000d2e:	60da      	str	r2, [r3, #12]
 8000d30:	e71a      	b.n	8000b68 <HAL_RCC_OscConfig+0x6c>
 8000d32:	69e3      	ldr	r3, [r4, #28]
 8000d34:	4d15      	ldr	r5, [pc, #84]	@ (8000d8c <HAL_RCC_OscConfig+0x290>)
 8000d36:	b36b      	cbz	r3, 8000d94 <HAL_RCC_OscConfig+0x298>
 8000d38:	682b      	ldr	r3, [r5, #0]
 8000d3a:	f043 0380 	orr.w	r3, r3, #128	@ 0x80
 8000d3e:	602b      	str	r3, [r5, #0]
 8000d40:	f7ff fd22 	bl	8000788 <HAL_GetTick>
 8000d44:	4606      	mov	r6, r0
 8000d46:	682b      	ldr	r3, [r5, #0]
 8000d48:	05df      	lsls	r7, r3, #23
 8000d4a:	d511      	bpl.n	8000d70 <HAL_RCC_OscConfig+0x274>
 8000d4c:	f7ff fd22 	bl	8000794 <HAL_GetREVID>
 8000d50:	f241 0303 	movw	r3, #4099	@ 0x1003
 8000d54:	6a22      	ldr	r2, [r4, #32]
 8000d56:	4298      	cmp	r0, r3
 8000d58:	d810      	bhi.n	8000d7c <HAL_RCC_OscConfig+0x280>
 8000d5a:	686b      	ldr	r3, [r5, #4]
 8000d5c:	2a20      	cmp	r2, #32
 8000d5e:	f023 43f8 	bic.w	r3, r3, #2080374784	@ 0x7c000000
 8000d62:	bf0c      	ite	eq
 8000d64:	f043 4380 	orreq.w	r3, r3, #1073741824	@ 0x40000000
 8000d68:	ea43 6382 	orrne.w	r3, r3, r2, lsl #26
 8000d6c:	606b      	str	r3, [r5, #4]
 8000d6e:	e6fb      	b.n	8000b68 <HAL_RCC_OscConfig+0x6c>
 8000d70:	f7ff fd0a 	bl	8000788 <HAL_GetTick>
 8000d74:	1b80      	subs	r0, r0, r6
 8000d76:	2802      	cmp	r0, #2
 8000d78:	d9e5      	bls.n	8000d46 <HAL_RCC_OscConfig+0x24a>
 8000d7a:	e750      	b.n	8000c1e <HAL_RCC_OscConfig+0x122>
 8000d7c:	68eb      	ldr	r3, [r5, #12]
 8000d7e:	f023 537c 	bic.w	r3, r3, #1056964608	@ 0x3f000000
 8000d82:	ea43 6302 	orr.w	r3, r3, r2, lsl #24
 8000d86:	60eb      	str	r3, [r5, #12]
 8000d88:	e6ee      	b.n	8000b68 <HAL_RCC_OscConfig+0x6c>
 8000d8a:	bf00      	nop
 8000d8c:	58024400 	.word	0x58024400
 8000d90:	58024800 	.word	0x58024800
 8000d94:	682b      	ldr	r3, [r5, #0]
 8000d96:	f023 0380 	bic.w	r3, r3, #128	@ 0x80
 8000d9a:	602b      	str	r3, [r5, #0]
 8000d9c:	f7ff fcf4 	bl	8000788 <HAL_GetTick>
 8000da0:	4606      	mov	r6, r0
 8000da2:	682b      	ldr	r3, [r5, #0]
 8000da4:	05d8      	lsls	r0, r3, #23
 8000da6:	f57f aedf 	bpl.w	8000b68 <HAL_RCC_OscConfig+0x6c>
 8000daa:	f7ff fced 	bl	8000788 <HAL_GetTick>
 8000dae:	1b80      	subs	r0, r0, r6
 8000db0:	2802      	cmp	r0, #2
 8000db2:	d9f6      	bls.n	8000da2 <HAL_RCC_OscConfig+0x2a6>
 8000db4:	e733      	b.n	8000c1e <HAL_RCC_OscConfig+0x122>
 8000db6:	6963      	ldr	r3, [r4, #20]
 8000db8:	4da3      	ldr	r5, [pc, #652]	@ (8001048 <HAL_RCC_OscConfig+0x54c>)
 8000dba:	b183      	cbz	r3, 8000dde <HAL_RCC_OscConfig+0x2e2>
 8000dbc:	6f6b      	ldr	r3, [r5, #116]	@ 0x74
 8000dbe:	f043 0301 	orr.w	r3, r3, #1
 8000dc2:	676b      	str	r3, [r5, #116]	@ 0x74
 8000dc4:	f7ff fce0 	bl	8000788 <HAL_GetTick>
 8000dc8:	4606      	mov	r6, r0
 8000dca:	6f6b      	ldr	r3, [r5, #116]	@ 0x74
 8000dcc:	079b      	lsls	r3, r3, #30
 8000dce:	f53f aecf 	bmi.w	8000b70 <HAL_RCC_OscConfig+0x74>
 8000dd2:	f7ff fcd9 	bl	8000788 <HAL_GetTick>
 8000dd6:	1b80      	subs	r0, r0, r6
 8000dd8:	2802      	cmp	r0, #2
 8000dda:	d9f6      	bls.n	8000dca <HAL_RCC_OscConfig+0x2ce>
 8000ddc:	e71f      	b.n	8000c1e <HAL_RCC_OscConfig+0x122>
 8000dde:	6f6b      	ldr	r3, [r5, #116]	@ 0x74
 8000de0:	f023 0301 	bic.w	r3, r3, #1
 8000de4:	676b      	str	r3, [r5, #116]	@ 0x74
 8000de6:	f7ff fccf 	bl	8000788 <HAL_GetTick>
 8000dea:	4606      	mov	r6, r0
 8000dec:	6f6b      	ldr	r3, [r5, #116]	@ 0x74
 8000dee:	079f      	lsls	r7, r3, #30
 8000df0:	f57f aebe 	bpl.w	8000b70 <HAL_RCC_OscConfig+0x74>
 8000df4:	f7ff fcc8 	bl	8000788 <HAL_GetTick>
 8000df8:	1b80      	subs	r0, r0, r6
 8000dfa:	2802      	cmp	r0, #2
 8000dfc:	d9f6      	bls.n	8000dec <HAL_RCC_OscConfig+0x2f0>
 8000dfe:	e70e      	b.n	8000c1e <HAL_RCC_OscConfig+0x122>
 8000e00:	69a3      	ldr	r3, [r4, #24]
 8000e02:	4d91      	ldr	r5, [pc, #580]	@ (8001048 <HAL_RCC_OscConfig+0x54c>)
 8000e04:	b183      	cbz	r3, 8000e28 <HAL_RCC_OscConfig+0x32c>
 8000e06:	682b      	ldr	r3, [r5, #0]
 8000e08:	f443 5380 	orr.w	r3, r3, #4096	@ 0x1000
 8000e0c:	602b      	str	r3, [r5, #0]
 8000e0e:	f7ff fcbb 	bl	8000788 <HAL_GetTick>
 8000e12:	4606      	mov	r6, r0
 8000e14:	682b      	ldr	r3, [r5, #0]
 8000e16:	0498      	lsls	r0, r3, #18
 8000e18:	f53f aeae 	bmi.w	8000b78 <HAL_RCC_OscConfig+0x7c>
 8000e1c:	f7ff fcb4 	bl	8000788 <HAL_GetTick>
 8000e20:	1b80      	subs	r0, r0, r6
 8000e22:	2802      	cmp	r0, #2
 8000e24:	d9f6      	bls.n	8000e14 <HAL_RCC_OscConfig+0x318>
 8000e26:	e6fa      	b.n	8000c1e <HAL_RCC_OscConfig+0x122>
 8000e28:	682b      	ldr	r3, [r5, #0]
 8000e2a:	f423 5380 	bic.w	r3, r3, #4096	@ 0x1000
 8000e2e:	602b      	str	r3, [r5, #0]
 8000e30:	f7ff fcaa 	bl	8000788 <HAL_GetTick>
 8000e34:	4606      	mov	r6, r0
 8000e36:	682b      	ldr	r3, [r5, #0]
 8000e38:	0499      	lsls	r1, r3, #18
 8000e3a:	f57f ae9d 	bpl.w	8000b78 <HAL_RCC_OscConfig+0x7c>
 8000e3e:	f7ff fca3 	bl	8000788 <HAL_GetTick>
 8000e42:	1b80      	subs	r0, r0, r6
 8000e44:	2802      	cmp	r0, #2
 8000e46:	d9f6      	bls.n	8000e36 <HAL_RCC_OscConfig+0x33a>
 8000e48:	e6e9      	b.n	8000c1e <HAL_RCC_OscConfig+0x122>
 8000e4a:	f7ff fc9d 	bl	8000788 <HAL_GetTick>
 8000e4e:	1b80      	subs	r0, r0, r6
 8000e50:	2864      	cmp	r0, #100	@ 0x64
 8000e52:	f67f ae9c 	bls.w	8000b8e <HAL_RCC_OscConfig+0x92>
 8000e56:	e6e2      	b.n	8000c1e <HAL_RCC_OscConfig+0x122>
 8000e58:	b9b3      	cbnz	r3, 8000e88 <HAL_RCC_OscConfig+0x38c>
 8000e5a:	6f2b      	ldr	r3, [r5, #112]	@ 0x70
 8000e5c:	f241 3788 	movw	r7, #5000	@ 0x1388
 8000e60:	f023 0301 	bic.w	r3, r3, #1
 8000e64:	672b      	str	r3, [r5, #112]	@ 0x70
 8000e66:	6f2b      	ldr	r3, [r5, #112]	@ 0x70
 8000e68:	f023 0304 	bic.w	r3, r3, #4
 8000e6c:	672b      	str	r3, [r5, #112]	@ 0x70
 8000e6e:	f7ff fc8b 	bl	8000788 <HAL_GetTick>
 8000e72:	4606      	mov	r6, r0
 8000e74:	6f2b      	ldr	r3, [r5, #112]	@ 0x70
 8000e76:	0798      	lsls	r0, r3, #30
 8000e78:	f57f aea0 	bpl.w	8000bbc <HAL_RCC_OscConfig+0xc0>
 8000e7c:	f7ff fc84 	bl	8000788 <HAL_GetTick>
 8000e80:	1b80      	subs	r0, r0, r6
 8000e82:	42b8      	cmp	r0, r7
 8000e84:	d9f6      	bls.n	8000e74 <HAL_RCC_OscConfig+0x378>
 8000e86:	e6ca      	b.n	8000c1e <HAL_RCC_OscConfig+0x122>
 8000e88:	2b05      	cmp	r3, #5
 8000e8a:	6f2b      	ldr	r3, [r5, #112]	@ 0x70
 8000e8c:	d103      	bne.n	8000e96 <HAL_RCC_OscConfig+0x39a>
 8000e8e:	f043 0304 	orr.w	r3, r3, #4
 8000e92:	672b      	str	r3, [r5, #112]	@ 0x70
 8000e94:	e684      	b.n	8000ba0 <HAL_RCC_OscConfig+0xa4>
 8000e96:	f023 0301 	bic.w	r3, r3, #1
 8000e9a:	672b      	str	r3, [r5, #112]	@ 0x70
 8000e9c:	6f2b      	ldr	r3, [r5, #112]	@ 0x70
 8000e9e:	f023 0304 	bic.w	r3, r3, #4
 8000ea2:	e680      	b.n	8000ba6 <HAL_RCC_OscConfig+0xaa>
 8000ea4:	f7ff fc70 	bl	8000788 <HAL_GetTick>
 8000ea8:	1b40      	subs	r0, r0, r5
 8000eaa:	42b8      	cmp	r0, r7
 8000eac:	f67f ae82 	bls.w	8000bb4 <HAL_RCC_OscConfig+0xb8>
 8000eb0:	e6b5      	b.n	8000c1e <HAL_RCC_OscConfig+0x122>
 8000eb2:	4d65      	ldr	r5, [pc, #404]	@ (8001048 <HAL_RCC_OscConfig+0x54c>)
 8000eb4:	692b      	ldr	r3, [r5, #16]
 8000eb6:	f003 0338 	and.w	r3, r3, #56	@ 0x38
 8000eba:	2b18      	cmp	r3, #24
 8000ebc:	d078      	beq.n	8000fb0 <HAL_RCC_OscConfig+0x4b4>
 8000ebe:	682b      	ldr	r3, [r5, #0]
 8000ec0:	2902      	cmp	r1, #2
 8000ec2:	f023 7380 	bic.w	r3, r3, #16777216	@ 0x1000000
 8000ec6:	602b      	str	r3, [r5, #0]
 8000ec8:	d165      	bne.n	8000f96 <HAL_RCC_OscConfig+0x49a>
 8000eca:	f7ff fc5d 	bl	8000788 <HAL_GetTick>
 8000ece:	4606      	mov	r6, r0
 8000ed0:	682b      	ldr	r3, [r5, #0]
 8000ed2:	0199      	lsls	r1, r3, #6
 8000ed4:	d459      	bmi.n	8000f8a <HAL_RCC_OscConfig+0x48e>
 8000ed6:	6aab      	ldr	r3, [r5, #40]	@ 0x28
 8000ed8:	6aa2      	ldr	r2, [r4, #40]	@ 0x28
 8000eda:	f423 737c 	bic.w	r3, r3, #1008	@ 0x3f0
 8000ede:	f023 0303 	bic.w	r3, r3, #3
 8000ee2:	4313      	orrs	r3, r2
 8000ee4:	6ae2      	ldr	r2, [r4, #44]	@ 0x2c
 8000ee6:	ea43 1302 	orr.w	r3, r3, r2, lsl #4
 8000eea:	62ab      	str	r3, [r5, #40]	@ 0x28
 8000eec:	6b63      	ldr	r3, [r4, #52]	@ 0x34
 8000eee:	6ba2      	ldr	r2, [r4, #56]	@ 0x38
 8000ef0:	3b01      	subs	r3, #1
 8000ef2:	3a01      	subs	r2, #1
 8000ef4:	025b      	lsls	r3, r3, #9
 8000ef6:	0412      	lsls	r2, r2, #16
 8000ef8:	b29b      	uxth	r3, r3
 8000efa:	f402 02fe 	and.w	r2, r2, #8323072	@ 0x7f0000
 8000efe:	4313      	orrs	r3, r2
 8000f00:	6b22      	ldr	r2, [r4, #48]	@ 0x30
 8000f02:	3a01      	subs	r2, #1
 8000f04:	f3c2 0208 	ubfx	r2, r2, #0, #9
 8000f08:	4313      	orrs	r3, r2
 8000f0a:	6be2      	ldr	r2, [r4, #60]	@ 0x3c
 8000f0c:	3a01      	subs	r2, #1
 8000f0e:	0612      	lsls	r2, r2, #24
 8000f10:	f002 42fe 	and.w	r2, r2, #2130706432	@ 0x7f000000
 8000f14:	4313      	orrs	r3, r2
 8000f16:	632b      	str	r3, [r5, #48]	@ 0x30
 8000f18:	6aeb      	ldr	r3, [r5, #44]	@ 0x2c
 8000f1a:	f023 0301 	bic.w	r3, r3, #1
 8000f1e:	62eb      	str	r3, [r5, #44]	@ 0x2c
 8000f20:	6b6b      	ldr	r3, [r5, #52]	@ 0x34
 8000f22:	6ca2      	ldr	r2, [r4, #72]	@ 0x48
 8000f24:	f36f 03cf 	bfc	r3, #3, #13
 8000f28:	ea43 03c2 	orr.w	r3, r3, r2, lsl #3
 8000f2c:	636b      	str	r3, [r5, #52]	@ 0x34
 8000f2e:	6aeb      	ldr	r3, [r5, #44]	@ 0x2c
 8000f30:	6c22      	ldr	r2, [r4, #64]	@ 0x40
 8000f32:	f023 030c 	bic.w	r3, r3, #12
 8000f36:	4313      	orrs	r3, r2
 8000f38:	62eb      	str	r3, [r5, #44]	@ 0x2c
 8000f3a:	6aeb      	ldr	r3, [r5, #44]	@ 0x2c
 8000f3c:	6c62      	ldr	r2, [r4, #68]	@ 0x44
 8000f3e:	f023 0302 	bic.w	r3, r3, #2
 8000f42:	4313      	orrs	r3, r2
 8000f44:	62eb      	str	r3, [r5, #44]	@ 0x2c
 8000f46:	6aeb      	ldr	r3, [r5, #44]	@ 0x2c
 8000f48:	f443 3380 	orr.w	r3, r3, #65536	@ 0x10000
 8000f4c:	62eb      	str	r3, [r5, #44]	@ 0x2c
 8000f4e:	6aeb      	ldr	r3, [r5, #44]	@ 0x2c
 8000f50:	f443 3300 	orr.w	r3, r3, #131072	@ 0x20000
 8000f54:	62eb      	str	r3, [r5, #44]	@ 0x2c
 8000f56:	6aeb      	ldr	r3, [r5, #44]	@ 0x2c
 8000f58:	f443 2380 	orr.w	r3, r3, #262144	@ 0x40000
 8000f5c:	62eb      	str	r3, [r5, #44]	@ 0x2c
 8000f5e:	6aeb      	ldr	r3, [r5, #44]	@ 0x2c
 8000f60:	f043 0301 	orr.w	r3, r3, #1
 8000f64:	62eb      	str	r3, [r5, #44]	@ 0x2c
 8000f66:	682b      	ldr	r3, [r5, #0]
 8000f68:	f043 7380 	orr.w	r3, r3, #16777216	@ 0x1000000
 8000f6c:	602b      	str	r3, [r5, #0]
 8000f6e:	f7ff fc0b 	bl	8000788 <HAL_GetTick>
 8000f72:	4d35      	ldr	r5, [pc, #212]	@ (8001048 <HAL_RCC_OscConfig+0x54c>)
 8000f74:	4604      	mov	r4, r0
 8000f76:	682b      	ldr	r3, [r5, #0]
 8000f78:	019a      	lsls	r2, r3, #6
 8000f7a:	f53f ae23 	bmi.w	8000bc4 <HAL_RCC_OscConfig+0xc8>
 8000f7e:	f7ff fc03 	bl	8000788 <HAL_GetTick>
 8000f82:	1b00      	subs	r0, r0, r4
 8000f84:	2802      	cmp	r0, #2
 8000f86:	d9f6      	bls.n	8000f76 <HAL_RCC_OscConfig+0x47a>
 8000f88:	e649      	b.n	8000c1e <HAL_RCC_OscConfig+0x122>
 8000f8a:	f7ff fbfd 	bl	8000788 <HAL_GetTick>
 8000f8e:	1b80      	subs	r0, r0, r6
 8000f90:	2802      	cmp	r0, #2
 8000f92:	d99d      	bls.n	8000ed0 <HAL_RCC_OscConfig+0x3d4>
 8000f94:	e643      	b.n	8000c1e <HAL_RCC_OscConfig+0x122>
 8000f96:	f7ff fbf7 	bl	8000788 <HAL_GetTick>
 8000f9a:	4604      	mov	r4, r0
 8000f9c:	682b      	ldr	r3, [r5, #0]
 8000f9e:	019b      	lsls	r3, r3, #6
 8000fa0:	f57f ae10 	bpl.w	8000bc4 <HAL_RCC_OscConfig+0xc8>
 8000fa4:	f7ff fbf0 	bl	8000788 <HAL_GetTick>
 8000fa8:	1b00      	subs	r0, r0, r4
 8000faa:	2802      	cmp	r0, #2
 8000fac:	d9f6      	bls.n	8000f9c <HAL_RCC_OscConfig+0x4a0>
 8000fae:	e636      	b.n	8000c1e <HAL_RCC_OscConfig+0x122>
 8000fb0:	2901      	cmp	r1, #1
 8000fb2:	6aaa      	ldr	r2, [r5, #40]	@ 0x28
 8000fb4:	6b2b      	ldr	r3, [r5, #48]	@ 0x30
 8000fb6:	f43f ae1a 	beq.w	8000bee <HAL_RCC_OscConfig+0xf2>
 8000fba:	f002 0103 	and.w	r1, r2, #3
 8000fbe:	6aa0      	ldr	r0, [r4, #40]	@ 0x28
 8000fc0:	4281      	cmp	r1, r0
 8000fc2:	f47f ae14 	bne.w	8000bee <HAL_RCC_OscConfig+0xf2>
 8000fc6:	f3c2 1205 	ubfx	r2, r2, #4, #6
 8000fca:	6ae1      	ldr	r1, [r4, #44]	@ 0x2c
 8000fcc:	428a      	cmp	r2, r1
 8000fce:	f47f ae0e 	bne.w	8000bee <HAL_RCC_OscConfig+0xf2>
 8000fd2:	6b22      	ldr	r2, [r4, #48]	@ 0x30
 8000fd4:	f3c3 0108 	ubfx	r1, r3, #0, #9
 8000fd8:	3a01      	subs	r2, #1
 8000fda:	4291      	cmp	r1, r2
 8000fdc:	f47f ae07 	bne.w	8000bee <HAL_RCC_OscConfig+0xf2>
 8000fe0:	6b62      	ldr	r2, [r4, #52]	@ 0x34
 8000fe2:	f3c3 2146 	ubfx	r1, r3, #9, #7
 8000fe6:	3a01      	subs	r2, #1
 8000fe8:	4291      	cmp	r1, r2
 8000fea:	f47f ae00 	bne.w	8000bee <HAL_RCC_OscConfig+0xf2>
 8000fee:	6ba2      	ldr	r2, [r4, #56]	@ 0x38
 8000ff0:	f3c3 4106 	ubfx	r1, r3, #16, #7
 8000ff4:	3a01      	subs	r2, #1
 8000ff6:	4291      	cmp	r1, r2
 8000ff8:	f47f adf9 	bne.w	8000bee <HAL_RCC_OscConfig+0xf2>
 8000ffc:	6be2      	ldr	r2, [r4, #60]	@ 0x3c
 8000ffe:	f3c3 6306 	ubfx	r3, r3, #24, #7
 8001002:	3a01      	subs	r2, #1
 8001004:	4293      	cmp	r3, r2
 8001006:	f47f adf2 	bne.w	8000bee <HAL_RCC_OscConfig+0xf2>
 800100a:	6b6b      	ldr	r3, [r5, #52]	@ 0x34
 800100c:	6ca2      	ldr	r2, [r4, #72]	@ 0x48
 800100e:	f3c3 03cc 	ubfx	r3, r3, #3, #13
 8001012:	429a      	cmp	r2, r3
 8001014:	f43f add6 	beq.w	8000bc4 <HAL_RCC_OscConfig+0xc8>
 8001018:	4d0b      	ldr	r5, [pc, #44]	@ (8001048 <HAL_RCC_OscConfig+0x54c>)
 800101a:	6aeb      	ldr	r3, [r5, #44]	@ 0x2c
 800101c:	f023 0301 	bic.w	r3, r3, #1
 8001020:	62eb      	str	r3, [r5, #44]	@ 0x2c
 8001022:	f7ff fbb1 	bl	8000788 <HAL_GetTick>
 8001026:	4606      	mov	r6, r0
 8001028:	f7ff fbae 	bl	8000788 <HAL_GetTick>
 800102c:	42b0      	cmp	r0, r6
 800102e:	d0fb      	beq.n	8001028 <HAL_RCC_OscConfig+0x52c>
 8001030:	6b6b      	ldr	r3, [r5, #52]	@ 0x34
 8001032:	6ca2      	ldr	r2, [r4, #72]	@ 0x48
 8001034:	f36f 03cf 	bfc	r3, #3, #13
 8001038:	ea43 03c2 	orr.w	r3, r3, r2, lsl #3
 800103c:	636b      	str	r3, [r5, #52]	@ 0x34
 800103e:	6aeb      	ldr	r3, [r5, #44]	@ 0x2c
 8001040:	f043 0301 	orr.w	r3, r3, #1
 8001044:	62eb      	str	r3, [r5, #44]	@ 0x2c
 8001046:	e5bd      	b.n	8000bc4 <HAL_RCC_OscConfig+0xc8>
 8001048:	58024400 	.word	0x58024400

0800104c <HAL_RCC_GetSysClockFreq>:
 800104c:	4b49      	ldr	r3, [pc, #292]	@ (8001174 <HAL_RCC_GetSysClockFreq+0x128>)
 800104e:	691a      	ldr	r2, [r3, #16]
 8001050:	f002 0238 	and.w	r2, r2, #56	@ 0x38
 8001054:	2a10      	cmp	r2, #16
 8001056:	b530      	push	{r4, r5, lr}
 8001058:	f000 8088 	beq.w	800116c <HAL_RCC_GetSysClockFreq+0x120>
 800105c:	2a18      	cmp	r2, #24
 800105e:	d00c      	beq.n	800107a <HAL_RCC_GetSysClockFreq+0x2e>
 8001060:	2a00      	cmp	r2, #0
 8001062:	f040 8085 	bne.w	8001170 <HAL_RCC_GetSysClockFreq+0x124>
 8001066:	681a      	ldr	r2, [r3, #0]
 8001068:	4843      	ldr	r0, [pc, #268]	@ (8001178 <HAL_RCC_GetSysClockFreq+0x12c>)
 800106a:	f012 0f20 	tst.w	r2, #32
 800106e:	d003      	beq.n	8001078 <HAL_RCC_GetSysClockFreq+0x2c>
 8001070:	681b      	ldr	r3, [r3, #0]
 8001072:	f3c3 03c1 	ubfx	r3, r3, #3, #2
 8001076:	40d8      	lsrs	r0, r3
 8001078:	bd30      	pop	{r4, r5, pc}
 800107a:	6a99      	ldr	r1, [r3, #40]	@ 0x28
 800107c:	6a9d      	ldr	r5, [r3, #40]	@ 0x28
 800107e:	6adc      	ldr	r4, [r3, #44]	@ 0x2c
 8001080:	f415 7f7c 	tst.w	r5, #1008	@ 0x3f0
 8001084:	f3c5 1005 	ubfx	r0, r5, #4, #6
 8001088:	6b5a      	ldr	r2, [r3, #52]	@ 0x34
 800108a:	d0f5      	beq.n	8001078 <HAL_RCC_GetSysClockFreq+0x2c>
 800108c:	f3c2 02cc 	ubfx	r2, r2, #3, #13
 8001090:	f004 0401 	and.w	r4, r4, #1
 8001094:	f001 0103 	and.w	r1, r1, #3
 8001098:	ee07 0a90 	vmov	s15, r0
 800109c:	4362      	muls	r2, r4
 800109e:	eeb7 6a00 	vmov.f32	s12, #112	@ 0x3f800000  1.0
 80010a2:	2901      	cmp	r1, #1
 80010a4:	eeb8 7ae7 	vcvt.f32.s32	s14, s15
 80010a8:	ee06 2a90 	vmov	s13, r2
 80010ac:	eefa 6ae9 	vcvt.f32.s32	s13, s13, #13
 80010b0:	d04e      	beq.n	8001150 <HAL_RCC_GetSysClockFreq+0x104>
 80010b2:	2902      	cmp	r1, #2
 80010b4:	d03e      	beq.n	8001134 <HAL_RCC_GetSysClockFreq+0xe8>
 80010b6:	2900      	cmp	r1, #0
 80010b8:	d14a      	bne.n	8001150 <HAL_RCC_GetSysClockFreq+0x104>
 80010ba:	681a      	ldr	r2, [r3, #0]
 80010bc:	0692      	lsls	r2, r2, #26
 80010be:	d527      	bpl.n	8001110 <HAL_RCC_GetSysClockFreq+0xc4>
 80010c0:	6819      	ldr	r1, [r3, #0]
 80010c2:	4a2d      	ldr	r2, [pc, #180]	@ (8001178 <HAL_RCC_GetSysClockFreq+0x12c>)
 80010c4:	f3c1 01c1 	ubfx	r1, r1, #3, #2
 80010c8:	6b1b      	ldr	r3, [r3, #48]	@ 0x30
 80010ca:	40ca      	lsrs	r2, r1
 80010cc:	f3c3 0308 	ubfx	r3, r3, #0, #9
 80010d0:	ee07 2a90 	vmov	s15, r2
 80010d4:	eef8 5ae7 	vcvt.f32.s32	s11, s15
 80010d8:	eec5 7a87 	vdiv.f32	s15, s11, s14
 80010dc:	ee07 3a10 	vmov	s14, r3
 80010e0:	eeb8 7ac7 	vcvt.f32.s32	s14, s14
 80010e4:	ee37 7a26 	vadd.f32	s14, s14, s13
 80010e8:	ee37 7a06 	vadd.f32	s14, s14, s12
 80010ec:	ee67 7a87 	vmul.f32	s15, s15, s14
 80010f0:	4b20      	ldr	r3, [pc, #128]	@ (8001174 <HAL_RCC_GetSysClockFreq+0x128>)
 80010f2:	6b1b      	ldr	r3, [r3, #48]	@ 0x30
 80010f4:	f3c3 2346 	ubfx	r3, r3, #9, #7
 80010f8:	3301      	adds	r3, #1
 80010fa:	ee07 3a10 	vmov	s14, r3
 80010fe:	eef8 6ac7 	vcvt.f32.s32	s13, s14
 8001102:	ee87 7aa6 	vdiv.f32	s14, s15, s13
 8001106:	eefc 7ac7 	vcvt.u32.f32	s15, s14
 800110a:	ee17 0a90 	vmov	r0, s15
 800110e:	e7b3      	b.n	8001078 <HAL_RCC_GetSysClockFreq+0x2c>
 8001110:	6b1b      	ldr	r3, [r3, #48]	@ 0x30
 8001112:	f3c3 0308 	ubfx	r3, r3, #0, #9
 8001116:	ee07 3a90 	vmov	s15, r3
 800111a:	eef8 7ae7 	vcvt.f32.s32	s15, s15
 800111e:	ee77 7aa6 	vadd.f32	s15, s15, s13
 8001122:	ee77 7a86 	vadd.f32	s15, s15, s12
 8001126:	ed9f 6a15 	vldr	s12, [pc, #84]	@ 800117c <HAL_RCC_GetSysClockFreq+0x130>
 800112a:	eec6 6a07 	vdiv.f32	s13, s12, s14
 800112e:	ee67 7aa6 	vmul.f32	s15, s15, s13
 8001132:	e7dd      	b.n	80010f0 <HAL_RCC_GetSysClockFreq+0xa4>
 8001134:	6b1b      	ldr	r3, [r3, #48]	@ 0x30
 8001136:	f3c3 0308 	ubfx	r3, r3, #0, #9
 800113a:	ee07 3a90 	vmov	s15, r3
 800113e:	eef8 7ae7 	vcvt.f32.s32	s15, s15
 8001142:	ee77 7aa6 	vadd.f32	s15, s15, s13
 8001146:	ee77 7a86 	vadd.f32	s15, s15, s12
 800114a:	ed9f 6a0d 	vldr	s12, [pc, #52]	@ 8001180 <HAL_RCC_GetSysClockFreq+0x134>
 800114e:	e7ec      	b.n	800112a <HAL_RCC_GetSysClockFreq+0xde>
 8001150:	6b1b      	ldr	r3, [r3, #48]	@ 0x30
 8001152:	f3c3 0308 	ubfx	r3, r3, #0, #9
 8001156:	ee07 3a90 	vmov	s15, r3
 800115a:	eef8 7ae7 	vcvt.f32.s32	s15, s15
 800115e:	ee77 7aa6 	vadd.f32	s15, s15, s13
 8001162:	ee77 7a86 	vadd.f32	s15, s15, s12
 8001166:	ed9f 6a07 	vldr	s12, [pc, #28]	@ 8001184 <HAL_RCC_GetSysClockFreq+0x138>
 800116a:	e7de      	b.n	800112a <HAL_RCC_GetSysClockFreq+0xde>
 800116c:	4806      	ldr	r0, [pc, #24]	@ (8001188 <HAL_RCC_GetSysClockFreq+0x13c>)
 800116e:	e783      	b.n	8001078 <HAL_RCC_GetSysClockFreq+0x2c>
 8001170:	4806      	ldr	r0, [pc, #24]	@ (800118c <HAL_RCC_GetSysClockFreq+0x140>)
 8001172:	e781      	b.n	8001078 <HAL_RCC_GetSysClockFreq+0x2c>
 8001174:	58024400 	.word	0x58024400
 8001178:	03d09000 	.word	0x03d09000
 800117c:	4c742400 	.word	0x4c742400
 8001180:	4bbebc20 	.word	0x4bbebc20
 8001184:	4a742400 	.word	0x4a742400
 8001188:	017d7840 	.word	0x017d7840
 800118c:	003d0900 	.word	0x003d0900

08001190 <HAL_RCC_ClockConfig>:
 8001190:	e92d 41f0 	stmdb	sp!, {r4, r5, r6, r7, r8, lr}
 8001194:	460d      	mov	r5, r1
 8001196:	4604      	mov	r4, r0
 8001198:	b910      	cbnz	r0, 80011a0 <HAL_RCC_ClockConfig+0x10>
 800119a:	2001      	movs	r0, #1
 800119c:	e8bd 81f0 	ldmia.w	sp!, {r4, r5, r6, r7, r8, pc}
 80011a0:	4a88      	ldr	r2, [pc, #544]	@ (80013c4 <HAL_RCC_ClockConfig+0x234>)
 80011a2:	6813      	ldr	r3, [r2, #0]
 80011a4:	f003 030f 	and.w	r3, r3, #15
 80011a8:	428b      	cmp	r3, r1
 80011aa:	f0c0 8093 	bcc.w	80012d4 <HAL_RCC_ClockConfig+0x144>
 80011ae:	6823      	ldr	r3, [r4, #0]
 80011b0:	075f      	lsls	r7, r3, #29
 80011b2:	f100 809b 	bmi.w	80012ec <HAL_RCC_ClockConfig+0x15c>
 80011b6:	071e      	lsls	r6, r3, #28
 80011b8:	d50b      	bpl.n	80011d2 <HAL_RCC_ClockConfig+0x42>
 80011ba:	4983      	ldr	r1, [pc, #524]	@ (80013c8 <HAL_RCC_ClockConfig+0x238>)
 80011bc:	6960      	ldr	r0, [r4, #20]
 80011be:	69ca      	ldr	r2, [r1, #28]
 80011c0:	f002 0270 	and.w	r2, r2, #112	@ 0x70
 80011c4:	4290      	cmp	r0, r2
 80011c6:	d904      	bls.n	80011d2 <HAL_RCC_ClockConfig+0x42>
 80011c8:	69ca      	ldr	r2, [r1, #28]
 80011ca:	f022 0270 	bic.w	r2, r2, #112	@ 0x70
 80011ce:	4302      	orrs	r2, r0
 80011d0:	61ca      	str	r2, [r1, #28]
 80011d2:	06d8      	lsls	r0, r3, #27
 80011d4:	d50b      	bpl.n	80011ee <HAL_RCC_ClockConfig+0x5e>
 80011d6:	497c      	ldr	r1, [pc, #496]	@ (80013c8 <HAL_RCC_ClockConfig+0x238>)
 80011d8:	69a0      	ldr	r0, [r4, #24]
 80011da:	69ca      	ldr	r2, [r1, #28]
 80011dc:	f402 62e0 	and.w	r2, r2, #1792	@ 0x700
 80011e0:	4290      	cmp	r0, r2
 80011e2:	d904      	bls.n	80011ee <HAL_RCC_ClockConfig+0x5e>
 80011e4:	69ca      	ldr	r2, [r1, #28]
 80011e6:	f422 62e0 	bic.w	r2, r2, #1792	@ 0x700
 80011ea:	4302      	orrs	r2, r0
 80011ec:	61ca      	str	r2, [r1, #28]
 80011ee:	0699      	lsls	r1, r3, #26
 80011f0:	d50b      	bpl.n	800120a <HAL_RCC_ClockConfig+0x7a>
 80011f2:	4975      	ldr	r1, [pc, #468]	@ (80013c8 <HAL_RCC_ClockConfig+0x238>)
 80011f4:	69e0      	ldr	r0, [r4, #28]
 80011f6:	6a0a      	ldr	r2, [r1, #32]
 80011f8:	f002 0270 	and.w	r2, r2, #112	@ 0x70
 80011fc:	4290      	cmp	r0, r2
 80011fe:	d904      	bls.n	800120a <HAL_RCC_ClockConfig+0x7a>
 8001200:	6a0a      	ldr	r2, [r1, #32]
 8001202:	f022 0270 	bic.w	r2, r2, #112	@ 0x70
 8001206:	4302      	orrs	r2, r0
 8001208:	620a      	str	r2, [r1, #32]
 800120a:	079a      	lsls	r2, r3, #30
 800120c:	d50b      	bpl.n	8001226 <HAL_RCC_ClockConfig+0x96>
 800120e:	496e      	ldr	r1, [pc, #440]	@ (80013c8 <HAL_RCC_ClockConfig+0x238>)
 8001210:	68e0      	ldr	r0, [r4, #12]
 8001212:	698a      	ldr	r2, [r1, #24]
 8001214:	f002 020f 	and.w	r2, r2, #15
 8001218:	4290      	cmp	r0, r2
 800121a:	d904      	bls.n	8001226 <HAL_RCC_ClockConfig+0x96>
 800121c:	698a      	ldr	r2, [r1, #24]
 800121e:	f022 020f 	bic.w	r2, r2, #15
 8001222:	4302      	orrs	r2, r0
 8001224:	618a      	str	r2, [r1, #24]
 8001226:	07df      	lsls	r7, r3, #31
 8001228:	d46e      	bmi.n	8001308 <HAL_RCC_ClockConfig+0x178>
 800122a:	6823      	ldr	r3, [r4, #0]
 800122c:	079e      	lsls	r6, r3, #30
 800122e:	f100 80a1 	bmi.w	8001374 <HAL_RCC_ClockConfig+0x1e4>
 8001232:	4964      	ldr	r1, [pc, #400]	@ (80013c4 <HAL_RCC_ClockConfig+0x234>)
 8001234:	680a      	ldr	r2, [r1, #0]
 8001236:	f002 020f 	and.w	r2, r2, #15
 800123a:	42aa      	cmp	r2, r5
 800123c:	f200 80a8 	bhi.w	8001390 <HAL_RCC_ClockConfig+0x200>
 8001240:	0758      	lsls	r0, r3, #29
 8001242:	f100 80b1 	bmi.w	80013a8 <HAL_RCC_ClockConfig+0x218>
 8001246:	0719      	lsls	r1, r3, #28
 8001248:	d50b      	bpl.n	8001262 <HAL_RCC_ClockConfig+0xd2>
 800124a:	495f      	ldr	r1, [pc, #380]	@ (80013c8 <HAL_RCC_ClockConfig+0x238>)
 800124c:	6960      	ldr	r0, [r4, #20]
 800124e:	69ca      	ldr	r2, [r1, #28]
 8001250:	f002 0270 	and.w	r2, r2, #112	@ 0x70
 8001254:	4290      	cmp	r0, r2
 8001256:	d204      	bcs.n	8001262 <HAL_RCC_ClockConfig+0xd2>
 8001258:	69ca      	ldr	r2, [r1, #28]
 800125a:	f022 0270 	bic.w	r2, r2, #112	@ 0x70
 800125e:	4302      	orrs	r2, r0
 8001260:	61ca      	str	r2, [r1, #28]
 8001262:	06da      	lsls	r2, r3, #27
 8001264:	d50b      	bpl.n	800127e <HAL_RCC_ClockConfig+0xee>
 8001266:	4958      	ldr	r1, [pc, #352]	@ (80013c8 <HAL_RCC_ClockConfig+0x238>)
 8001268:	69a0      	ldr	r0, [r4, #24]
 800126a:	69ca      	ldr	r2, [r1, #28]
 800126c:	f402 62e0 	and.w	r2, r2, #1792	@ 0x700
 8001270:	4290      	cmp	r0, r2
 8001272:	d204      	bcs.n	800127e <HAL_RCC_ClockConfig+0xee>
 8001274:	69ca      	ldr	r2, [r1, #28]
 8001276:	f422 62e0 	bic.w	r2, r2, #1792	@ 0x700
 800127a:	4302      	orrs	r2, r0
 800127c:	61ca      	str	r2, [r1, #28]
 800127e:	069b      	lsls	r3, r3, #26
 8001280:	d50b      	bpl.n	800129a <HAL_RCC_ClockConfig+0x10a>
 8001282:	4a51      	ldr	r2, [pc, #324]	@ (80013c8 <HAL_RCC_ClockConfig+0x238>)
 8001284:	69e1      	ldr	r1, [r4, #28]
 8001286:	6a13      	ldr	r3, [r2, #32]
 8001288:	f003 0370 	and.w	r3, r3, #112	@ 0x70
 800128c:	4299      	cmp	r1, r3
 800128e:	d204      	bcs.n	800129a <HAL_RCC_ClockConfig+0x10a>
 8001290:	6a13      	ldr	r3, [r2, #32]
 8001292:	f023 0370 	bic.w	r3, r3, #112	@ 0x70
 8001296:	430b      	orrs	r3, r1
 8001298:	6213      	str	r3, [r2, #32]
 800129a:	f7ff fed7 	bl	800104c <HAL_RCC_GetSysClockFreq>
 800129e:	494a      	ldr	r1, [pc, #296]	@ (80013c8 <HAL_RCC_ClockConfig+0x238>)
 80012a0:	4a4a      	ldr	r2, [pc, #296]	@ (80013cc <HAL_RCC_ClockConfig+0x23c>)
 80012a2:	698b      	ldr	r3, [r1, #24]
 80012a4:	f3c3 2303 	ubfx	r3, r3, #8, #4
 80012a8:	5cd3      	ldrb	r3, [r2, r3]
 80012aa:	f003 031f 	and.w	r3, r3, #31
 80012ae:	40d8      	lsrs	r0, r3
 80012b0:	698b      	ldr	r3, [r1, #24]
 80012b2:	f003 030f 	and.w	r3, r3, #15
 80012b6:	5cd3      	ldrb	r3, [r2, r3]
 80012b8:	4a45      	ldr	r2, [pc, #276]	@ (80013d0 <HAL_RCC_ClockConfig+0x240>)
 80012ba:	f003 031f 	and.w	r3, r3, #31
 80012be:	fa20 f303 	lsr.w	r3, r0, r3
 80012c2:	6013      	str	r3, [r2, #0]
 80012c4:	4b43      	ldr	r3, [pc, #268]	@ (80013d4 <HAL_RCC_ClockConfig+0x244>)
 80012c6:	6018      	str	r0, [r3, #0]
 80012c8:	4b43      	ldr	r3, [pc, #268]	@ (80013d8 <HAL_RCC_ClockConfig+0x248>)
 80012ca:	e8bd 41f0 	ldmia.w	sp!, {r4, r5, r6, r7, r8, lr}
 80012ce:	6818      	ldr	r0, [r3, #0]
 80012d0:	f7ff b9fa 	b.w	80006c8 <HAL_InitTick>
 80012d4:	6813      	ldr	r3, [r2, #0]
 80012d6:	f023 030f 	bic.w	r3, r3, #15
 80012da:	430b      	orrs	r3, r1
 80012dc:	6013      	str	r3, [r2, #0]
 80012de:	6813      	ldr	r3, [r2, #0]
 80012e0:	f003 030f 	and.w	r3, r3, #15
 80012e4:	428b      	cmp	r3, r1
 80012e6:	f47f af58 	bne.w	800119a <HAL_RCC_ClockConfig+0xa>
 80012ea:	e760      	b.n	80011ae <HAL_RCC_ClockConfig+0x1e>
 80012ec:	4936      	ldr	r1, [pc, #216]	@ (80013c8 <HAL_RCC_ClockConfig+0x238>)
 80012ee:	6920      	ldr	r0, [r4, #16]
 80012f0:	698a      	ldr	r2, [r1, #24]
 80012f2:	f002 0270 	and.w	r2, r2, #112	@ 0x70
 80012f6:	4290      	cmp	r0, r2
 80012f8:	f67f af5d 	bls.w	80011b6 <HAL_RCC_ClockConfig+0x26>
 80012fc:	698a      	ldr	r2, [r1, #24]
 80012fe:	f022 0270 	bic.w	r2, r2, #112	@ 0x70
 8001302:	4302      	orrs	r2, r0
 8001304:	618a      	str	r2, [r1, #24]
 8001306:	e756      	b.n	80011b6 <HAL_RCC_ClockConfig+0x26>
 8001308:	4b2f      	ldr	r3, [pc, #188]	@ (80013c8 <HAL_RCC_ClockConfig+0x238>)
 800130a:	68a1      	ldr	r1, [r4, #8]
 800130c:	699a      	ldr	r2, [r3, #24]
 800130e:	f422 6270 	bic.w	r2, r2, #3840	@ 0xf00
 8001312:	430a      	orrs	r2, r1
 8001314:	619a      	str	r2, [r3, #24]
 8001316:	6861      	ldr	r1, [r4, #4]
 8001318:	681a      	ldr	r2, [r3, #0]
 800131a:	2902      	cmp	r1, #2
 800131c:	d11d      	bne.n	800135a <HAL_RCC_ClockConfig+0x1ca>
 800131e:	f412 3f00 	tst.w	r2, #131072	@ 0x20000
 8001322:	f43f af3a 	beq.w	800119a <HAL_RCC_ClockConfig+0xa>
 8001326:	691a      	ldr	r2, [r3, #16]
 8001328:	f241 3888 	movw	r8, #5000	@ 0x1388
 800132c:	4f26      	ldr	r7, [pc, #152]	@ (80013c8 <HAL_RCC_ClockConfig+0x238>)
 800132e:	f022 0207 	bic.w	r2, r2, #7
 8001332:	430a      	orrs	r2, r1
 8001334:	611a      	str	r2, [r3, #16]
 8001336:	f7ff fa27 	bl	8000788 <HAL_GetTick>
 800133a:	4606      	mov	r6, r0
 800133c:	693b      	ldr	r3, [r7, #16]
 800133e:	6862      	ldr	r2, [r4, #4]
 8001340:	f003 0338 	and.w	r3, r3, #56	@ 0x38
 8001344:	ebb3 0fc2 	cmp.w	r3, r2, lsl #3
 8001348:	f43f af6f 	beq.w	800122a <HAL_RCC_ClockConfig+0x9a>
 800134c:	f7ff fa1c 	bl	8000788 <HAL_GetTick>
 8001350:	1b80      	subs	r0, r0, r6
 8001352:	4540      	cmp	r0, r8
 8001354:	d9f2      	bls.n	800133c <HAL_RCC_ClockConfig+0x1ac>
 8001356:	2003      	movs	r0, #3
 8001358:	e720      	b.n	800119c <HAL_RCC_ClockConfig+0xc>
 800135a:	2903      	cmp	r1, #3
 800135c:	d102      	bne.n	8001364 <HAL_RCC_ClockConfig+0x1d4>
 800135e:	f012 7f00 	tst.w	r2, #33554432	@ 0x2000000
 8001362:	e7de      	b.n	8001322 <HAL_RCC_ClockConfig+0x192>
 8001364:	2901      	cmp	r1, #1
 8001366:	d102      	bne.n	800136e <HAL_RCC_ClockConfig+0x1de>
 8001368:	f412 7f80 	tst.w	r2, #256	@ 0x100
 800136c:	e7d9      	b.n	8001322 <HAL_RCC_ClockConfig+0x192>
 800136e:	f012 0f04 	tst.w	r2, #4
 8001372:	e7d6      	b.n	8001322 <HAL_RCC_ClockConfig+0x192>
 8001374:	4914      	ldr	r1, [pc, #80]	@ (80013c8 <HAL_RCC_ClockConfig+0x238>)
 8001376:	68e0      	ldr	r0, [r4, #12]
 8001378:	698a      	ldr	r2, [r1, #24]
 800137a:	f002 020f 	and.w	r2, r2, #15
 800137e:	4290      	cmp	r0, r2
 8001380:	f4bf af57 	bcs.w	8001232 <HAL_RCC_ClockConfig+0xa2>
 8001384:	698a      	ldr	r2, [r1, #24]
 8001386:	f022 020f 	bic.w	r2, r2, #15
 800138a:	4302      	orrs	r2, r0
 800138c:	618a      	str	r2, [r1, #24]
 800138e:	e750      	b.n	8001232 <HAL_RCC_ClockConfig+0xa2>
 8001390:	680a      	ldr	r2, [r1, #0]
 8001392:	f022 020f 	bic.w	r2, r2, #15
 8001396:	432a      	orrs	r2, r5
 8001398:	600a      	str	r2, [r1, #0]
 800139a:	680a      	ldr	r2, [r1, #0]
 800139c:	f002 020f 	and.w	r2, r2, #15
 80013a0:	42aa      	cmp	r2, r5
 80013a2:	f47f aefa 	bne.w	800119a <HAL_RCC_ClockConfig+0xa>
 80013a6:	e74b      	b.n	8001240 <HAL_RCC_ClockConfig+0xb0>
 80013a8:	4907      	ldr	r1, [pc, #28]	@ (80013c8 <HAL_RCC_ClockConfig+0x238>)
 80013aa:	6920      	ldr	r0, [r4, #16]
 80013ac:	698a      	ldr	r2, [r1, #24]
 80013ae:	f002 0270 	and.w	r2, r2, #112	@ 0x70
 80013b2:	4290      	cmp	r0, r2
 80013b4:	f4bf af47 	bcs.w	8001246 <HAL_RCC_ClockConfig+0xb6>
 80013b8:	698a      	ldr	r2, [r1, #24]
 80013ba:	f022 0270 	bic.w	r2, r2, #112	@ 0x70
 80013be:	4302      	orrs	r2, r0
 80013c0:	618a      	str	r2, [r1, #24]
 80013c2:	e740      	b.n	8001246 <HAL_RCC_ClockConfig+0xb6>
 80013c4:	52002000 	.word	0x52002000
 80013c8:	58024400 	.word	0x58024400
 80013cc:	08001d40 	.word	0x08001d40
 80013d0:	24000000 	.word	0x24000000
 80013d4:	24000004 	.word	0x24000004
 80013d8:	2400000c 	.word	0x2400000c

080013dc <TIM_OC1_SetConfig>:
 80013dc:	6a03      	ldr	r3, [r0, #32]
 80013de:	6a02      	ldr	r2, [r0, #32]
 80013e0:	f023 0302 	bic.w	r3, r3, #2
 80013e4:	f022 0201 	bic.w	r2, r2, #1
 80013e8:	b570      	push	{r4, r5, r6, lr}
 80013ea:	6202      	str	r2, [r0, #32]
 80013ec:	6844      	ldr	r4, [r0, #4]
 80013ee:	6982      	ldr	r2, [r0, #24]
 80013f0:	680d      	ldr	r5, [r1, #0]
 80013f2:	f422 3280 	bic.w	r2, r2, #65536	@ 0x10000
 80013f6:	f022 0273 	bic.w	r2, r2, #115	@ 0x73
 80013fa:	432a      	orrs	r2, r5
 80013fc:	688d      	ldr	r5, [r1, #8]
 80013fe:	432b      	orrs	r3, r5
 8001400:	4d12      	ldr	r5, [pc, #72]	@ (800144c <TIM_OC1_SetConfig+0x70>)
 8001402:	42a8      	cmp	r0, r5
 8001404:	d00f      	beq.n	8001426 <TIM_OC1_SetConfig+0x4a>
 8001406:	f505 6580 	add.w	r5, r5, #1024	@ 0x400
 800140a:	42a8      	cmp	r0, r5
 800140c:	d00b      	beq.n	8001426 <TIM_OC1_SetConfig+0x4a>
 800140e:	f505 5570 	add.w	r5, r5, #15360	@ 0x3c00
 8001412:	42a8      	cmp	r0, r5
 8001414:	d007      	beq.n	8001426 <TIM_OC1_SetConfig+0x4a>
 8001416:	f505 6580 	add.w	r5, r5, #1024	@ 0x400
 800141a:	42a8      	cmp	r0, r5
 800141c:	d003      	beq.n	8001426 <TIM_OC1_SetConfig+0x4a>
 800141e:	f505 6580 	add.w	r5, r5, #1024	@ 0x400
 8001422:	42a8      	cmp	r0, r5
 8001424:	d10b      	bne.n	800143e <TIM_OC1_SetConfig+0x62>
 8001426:	68cd      	ldr	r5, [r1, #12]
 8001428:	f023 0308 	bic.w	r3, r3, #8
 800142c:	432b      	orrs	r3, r5
 800142e:	f424 7540 	bic.w	r5, r4, #768	@ 0x300
 8001432:	e9d1 4605 	ldrd	r4, r6, [r1, #20]
 8001436:	f023 0304 	bic.w	r3, r3, #4
 800143a:	4334      	orrs	r4, r6
 800143c:	432c      	orrs	r4, r5
 800143e:	6044      	str	r4, [r0, #4]
 8001440:	6182      	str	r2, [r0, #24]
 8001442:	684a      	ldr	r2, [r1, #4]
 8001444:	6342      	str	r2, [r0, #52]	@ 0x34
 8001446:	6203      	str	r3, [r0, #32]
 8001448:	bd70      	pop	{r4, r5, r6, pc}
 800144a:	bf00      	nop
 800144c:	40010000 	.word	0x40010000

08001450 <TIM_OC3_SetConfig>:
 8001450:	6a03      	ldr	r3, [r0, #32]
 8001452:	6a02      	ldr	r2, [r0, #32]
 8001454:	f423 7300 	bic.w	r3, r3, #512	@ 0x200
 8001458:	f422 7280 	bic.w	r2, r2, #256	@ 0x100
 800145c:	b570      	push	{r4, r5, r6, lr}
 800145e:	6202      	str	r2, [r0, #32]
 8001460:	6844      	ldr	r4, [r0, #4]
 8001462:	69c2      	ldr	r2, [r0, #28]
 8001464:	680d      	ldr	r5, [r1, #0]
 8001466:	f422 3280 	bic.w	r2, r2, #65536	@ 0x10000
 800146a:	f022 0273 	bic.w	r2, r2, #115	@ 0x73
 800146e:	432a      	orrs	r2, r5
 8001470:	688d      	ldr	r5, [r1, #8]
 8001472:	ea43 2305 	orr.w	r3, r3, r5, lsl #8
 8001476:	4d14      	ldr	r5, [pc, #80]	@ (80014c8 <TIM_OC3_SetConfig+0x78>)
 8001478:	42a8      	cmp	r0, r5
 800147a:	d00f      	beq.n	800149c <TIM_OC3_SetConfig+0x4c>
 800147c:	f505 6580 	add.w	r5, r5, #1024	@ 0x400
 8001480:	42a8      	cmp	r0, r5
 8001482:	d00b      	beq.n	800149c <TIM_OC3_SetConfig+0x4c>
 8001484:	f505 5570 	add.w	r5, r5, #15360	@ 0x3c00
 8001488:	42a8      	cmp	r0, r5
 800148a:	d10f      	bne.n	80014ac <TIM_OC3_SetConfig+0x5c>
 800148c:	f424 5540 	bic.w	r5, r4, #12288	@ 0x3000
 8001490:	e9d1 4605 	ldrd	r4, r6, [r1, #20]
 8001494:	4334      	orrs	r4, r6
 8001496:	ea45 1404 	orr.w	r4, r5, r4, lsl #4
 800149a:	e00e      	b.n	80014ba <TIM_OC3_SetConfig+0x6a>
 800149c:	f423 6300 	bic.w	r3, r3, #2048	@ 0x800
 80014a0:	68cd      	ldr	r5, [r1, #12]
 80014a2:	ea43 2305 	orr.w	r3, r3, r5, lsl #8
 80014a6:	f423 6380 	bic.w	r3, r3, #1024	@ 0x400
 80014aa:	e7ef      	b.n	800148c <TIM_OC3_SetConfig+0x3c>
 80014ac:	4d07      	ldr	r5, [pc, #28]	@ (80014cc <TIM_OC3_SetConfig+0x7c>)
 80014ae:	42a8      	cmp	r0, r5
 80014b0:	d0ec      	beq.n	800148c <TIM_OC3_SetConfig+0x3c>
 80014b2:	f505 6580 	add.w	r5, r5, #1024	@ 0x400
 80014b6:	42a8      	cmp	r0, r5
 80014b8:	d0e8      	beq.n	800148c <TIM_OC3_SetConfig+0x3c>
 80014ba:	6044      	str	r4, [r0, #4]
 80014bc:	61c2      	str	r2, [r0, #28]
 80014be:	684a      	ldr	r2, [r1, #4]
 80014c0:	63c2      	str	r2, [r0, #60]	@ 0x3c
 80014c2:	6203      	str	r3, [r0, #32]
 80014c4:	bd70      	pop	{r4, r5, r6, pc}
 80014c6:	bf00      	nop
 80014c8:	40010000 	.word	0x40010000
 80014cc:	40014400 	.word	0x40014400

080014d0 <TIM_OC4_SetConfig>:
 80014d0:	6a03      	ldr	r3, [r0, #32]
 80014d2:	6a02      	ldr	r2, [r0, #32]
 80014d4:	f423 5300 	bic.w	r3, r3, #8192	@ 0x2000
 80014d8:	f422 5280 	bic.w	r2, r2, #4096	@ 0x1000
 80014dc:	b530      	push	{r4, r5, lr}
 80014de:	6202      	str	r2, [r0, #32]
 80014e0:	6844      	ldr	r4, [r0, #4]
 80014e2:	69c2      	ldr	r2, [r0, #28]
 80014e4:	680d      	ldr	r5, [r1, #0]
 80014e6:	f022 7280 	bic.w	r2, r2, #16777216	@ 0x1000000
 80014ea:	f422 42e6 	bic.w	r2, r2, #29440	@ 0x7300
 80014ee:	ea42 2205 	orr.w	r2, r2, r5, lsl #8
 80014f2:	688d      	ldr	r5, [r1, #8]
 80014f4:	ea43 3305 	orr.w	r3, r3, r5, lsl #12
 80014f8:	4d0e      	ldr	r5, [pc, #56]	@ (8001534 <TIM_OC4_SetConfig+0x64>)
 80014fa:	42a8      	cmp	r0, r5
 80014fc:	d00f      	beq.n	800151e <TIM_OC4_SetConfig+0x4e>
 80014fe:	f505 6580 	add.w	r5, r5, #1024	@ 0x400
 8001502:	42a8      	cmp	r0, r5
 8001504:	d00b      	beq.n	800151e <TIM_OC4_SetConfig+0x4e>
 8001506:	f505 5570 	add.w	r5, r5, #15360	@ 0x3c00
 800150a:	42a8      	cmp	r0, r5
 800150c:	d007      	beq.n	800151e <TIM_OC4_SetConfig+0x4e>
 800150e:	f505 6580 	add.w	r5, r5, #1024	@ 0x400
 8001512:	42a8      	cmp	r0, r5
 8001514:	d003      	beq.n	800151e <TIM_OC4_SetConfig+0x4e>
 8001516:	f505 6580 	add.w	r5, r5, #1024	@ 0x400
 800151a:	42a8      	cmp	r0, r5
 800151c:	d104      	bne.n	8001528 <TIM_OC4_SetConfig+0x58>
 800151e:	f424 4480 	bic.w	r4, r4, #16384	@ 0x4000
 8001522:	694d      	ldr	r5, [r1, #20]
 8001524:	ea44 1485 	orr.w	r4, r4, r5, lsl #6
 8001528:	6044      	str	r4, [r0, #4]
 800152a:	61c2      	str	r2, [r0, #28]
 800152c:	684a      	ldr	r2, [r1, #4]
 800152e:	6402      	str	r2, [r0, #64]	@ 0x40
 8001530:	6203      	str	r3, [r0, #32]
 8001532:	bd30      	pop	{r4, r5, pc}
 8001534:	40010000 	.word	0x40010000

08001538 <TIM_OC5_SetConfig>:
 8001538:	6a03      	ldr	r3, [r0, #32]
 800153a:	6a02      	ldr	r2, [r0, #32]
 800153c:	f423 3300 	bic.w	r3, r3, #131072	@ 0x20000
 8001540:	f422 3280 	bic.w	r2, r2, #65536	@ 0x10000
 8001544:	b530      	push	{r4, r5, lr}
 8001546:	6202      	str	r2, [r0, #32]
 8001548:	6844      	ldr	r4, [r0, #4]
 800154a:	6d42      	ldr	r2, [r0, #84]	@ 0x54
 800154c:	680d      	ldr	r5, [r1, #0]
 800154e:	f422 3280 	bic.w	r2, r2, #65536	@ 0x10000
 8001552:	f022 0270 	bic.w	r2, r2, #112	@ 0x70
 8001556:	432a      	orrs	r2, r5
 8001558:	688d      	ldr	r5, [r1, #8]
 800155a:	ea43 4305 	orr.w	r3, r3, r5, lsl #16
 800155e:	4d0f      	ldr	r5, [pc, #60]	@ (800159c <TIM_OC5_SetConfig+0x64>)
 8001560:	42a8      	cmp	r0, r5
 8001562:	d00f      	beq.n	8001584 <TIM_OC5_SetConfig+0x4c>
 8001564:	f505 6580 	add.w	r5, r5, #1024	@ 0x400
 8001568:	42a8      	cmp	r0, r5
 800156a:	d00b      	beq.n	8001584 <TIM_OC5_SetConfig+0x4c>
 800156c:	f505 5570 	add.w	r5, r5, #15360	@ 0x3c00
 8001570:	42a8      	cmp	r0, r5
 8001572:	d007      	beq.n	8001584 <TIM_OC5_SetConfig+0x4c>
 8001574:	f505 6580 	add.w	r5, r5, #1024	@ 0x400
 8001578:	42a8      	cmp	r0, r5
 800157a:	d003      	beq.n	8001584 <TIM_OC5_SetConfig+0x4c>
 800157c:	f505 6580 	add.w	r5, r5, #1024	@ 0x400
 8001580:	42a8      	cmp	r0, r5
 8001582:	d104      	bne.n	800158e <TIM_OC5_SetConfig+0x56>
 8001584:	f424 3480 	bic.w	r4, r4, #65536	@ 0x10000
 8001588:	694d      	ldr	r5, [r1, #20]
 800158a:	ea44 2405 	orr.w	r4, r4, r5, lsl #8
 800158e:	6044      	str	r4, [r0, #4]
 8001590:	6542      	str	r2, [r0, #84]	@ 0x54
 8001592:	684a      	ldr	r2, [r1, #4]
 8001594:	6582      	str	r2, [r0, #88]	@ 0x58
 8001596:	6203      	str	r3, [r0, #32]
 8001598:	bd30      	pop	{r4, r5, pc}
 800159a:	bf00      	nop
 800159c:	40010000 	.word	0x40010000

080015a0 <TIM_OC6_SetConfig>:
 80015a0:	6a03      	ldr	r3, [r0, #32]
 80015a2:	6a02      	ldr	r2, [r0, #32]
 80015a4:	f423 1300 	bic.w	r3, r3, #2097152	@ 0x200000
 80015a8:	f422 1280 	bic.w	r2, r2, #1048576	@ 0x100000
 80015ac:	b530      	push	{r4, r5, lr}
 80015ae:	6202      	str	r2, [r0, #32]
 80015b0:	6844      	ldr	r4, [r0, #4]
 80015b2:	6d42      	ldr	r2, [r0, #84]	@ 0x54
 80015b4:	680d      	ldr	r5, [r1, #0]
 80015b6:	f022 7280 	bic.w	r2, r2, #16777216	@ 0x1000000
 80015ba:	f422 42e0 	bic.w	r2, r2, #28672	@ 0x7000
 80015be:	ea42 2205 	orr.w	r2, r2, r5, lsl #8
 80015c2:	688d      	ldr	r5, [r1, #8]
 80015c4:	ea43 5305 	orr.w	r3, r3, r5, lsl #20
 80015c8:	4d0e      	ldr	r5, [pc, #56]	@ (8001604 <TIM_OC6_SetConfig+0x64>)
 80015ca:	42a8      	cmp	r0, r5
 80015cc:	d00f      	beq.n	80015ee <TIM_OC6_SetConfig+0x4e>
 80015ce:	f505 6580 	add.w	r5, r5, #1024	@ 0x400
 80015d2:	42a8      	cmp	r0, r5
 80015d4:	d00b      	beq.n	80015ee <TIM_OC6_SetConfig+0x4e>
 80015d6:	f505 5570 	add.w	r5, r5, #15360	@ 0x3c00
 80015da:	42a8      	cmp	r0, r5
 80015dc:	d007      	beq.n	80015ee <TIM_OC6_SetConfig+0x4e>
 80015de:	f505 6580 	add.w	r5, r5, #1024	@ 0x400
 80015e2:	42a8      	cmp	r0, r5
 80015e4:	d003      	beq.n	80015ee <TIM_OC6_SetConfig+0x4e>
 80015e6:	f505 6580 	add.w	r5, r5, #1024	@ 0x400
 80015ea:	42a8      	cmp	r0, r5
 80015ec:	d104      	bne.n	80015f8 <TIM_OC6_SetConfig+0x58>
 80015ee:	f424 2480 	bic.w	r4, r4, #262144	@ 0x40000
 80015f2:	694d      	ldr	r5, [r1, #20]
 80015f4:	ea44 2485 	orr.w	r4, r4, r5, lsl #10
 80015f8:	6044      	str	r4, [r0, #4]
 80015fa:	6542      	str	r2, [r0, #84]	@ 0x54
 80015fc:	684a      	ldr	r2, [r1, #4]
 80015fe:	65c2      	str	r2, [r0, #92]	@ 0x5c
 8001600:	6203      	str	r3, [r0, #32]
 8001602:	bd30      	pop	{r4, r5, pc}
 8001604:	40010000 	.word	0x40010000

08001608 <HAL_TIM_PWM_MspInit>:
 8001608:	4770      	bx	lr
	...

0800160c <TIM_Base_SetConfig>:
 800160c:	4a27      	ldr	r2, [pc, #156]	@ (80016ac <TIM_Base_SetConfig+0xa0>)
 800160e:	6803      	ldr	r3, [r0, #0]
 8001610:	4290      	cmp	r0, r2
 8001612:	d012      	beq.n	800163a <TIM_Base_SetConfig+0x2e>
 8001614:	f1b0 4f80 	cmp.w	r0, #1073741824	@ 0x40000000
 8001618:	d00f      	beq.n	800163a <TIM_Base_SetConfig+0x2e>
 800161a:	f5a2 427c 	sub.w	r2, r2, #64512	@ 0xfc00
 800161e:	4290      	cmp	r0, r2
 8001620:	d00b      	beq.n	800163a <TIM_Base_SetConfig+0x2e>
 8001622:	f502 6280 	add.w	r2, r2, #1024	@ 0x400
 8001626:	4290      	cmp	r0, r2
 8001628:	d007      	beq.n	800163a <TIM_Base_SetConfig+0x2e>
 800162a:	f502 6280 	add.w	r2, r2, #1024	@ 0x400
 800162e:	4290      	cmp	r0, r2
 8001630:	d003      	beq.n	800163a <TIM_Base_SetConfig+0x2e>
 8001632:	f502 4278 	add.w	r2, r2, #63488	@ 0xf800
 8001636:	4290      	cmp	r0, r2
 8001638:	d108      	bne.n	800164c <TIM_Base_SetConfig+0x40>
 800163a:	f023 0370 	bic.w	r3, r3, #112	@ 0x70
 800163e:	684a      	ldr	r2, [r1, #4]
 8001640:	4313      	orrs	r3, r2
 8001642:	f423 7340 	bic.w	r3, r3, #768	@ 0x300
 8001646:	68ca      	ldr	r2, [r1, #12]
 8001648:	4313      	orrs	r3, r2
 800164a:	e00a      	b.n	8001662 <TIM_Base_SetConfig+0x56>
 800164c:	4a18      	ldr	r2, [pc, #96]	@ (80016b0 <TIM_Base_SetConfig+0xa4>)
 800164e:	4290      	cmp	r0, r2
 8001650:	d0f7      	beq.n	8001642 <TIM_Base_SetConfig+0x36>
 8001652:	f502 6280 	add.w	r2, r2, #1024	@ 0x400
 8001656:	4290      	cmp	r0, r2
 8001658:	d0f3      	beq.n	8001642 <TIM_Base_SetConfig+0x36>
 800165a:	f502 6280 	add.w	r2, r2, #1024	@ 0x400
 800165e:	4290      	cmp	r0, r2
 8001660:	d0ef      	beq.n	8001642 <TIM_Base_SetConfig+0x36>
 8001662:	694a      	ldr	r2, [r1, #20]
 8001664:	f023 0380 	bic.w	r3, r3, #128	@ 0x80
 8001668:	4313      	orrs	r3, r2
 800166a:	688a      	ldr	r2, [r1, #8]
 800166c:	62c2      	str	r2, [r0, #44]	@ 0x2c
 800166e:	680a      	ldr	r2, [r1, #0]
 8001670:	6282      	str	r2, [r0, #40]	@ 0x28
 8001672:	4a0e      	ldr	r2, [pc, #56]	@ (80016ac <TIM_Base_SetConfig+0xa0>)
 8001674:	4290      	cmp	r0, r2
 8001676:	d00f      	beq.n	8001698 <TIM_Base_SetConfig+0x8c>
 8001678:	f502 6280 	add.w	r2, r2, #1024	@ 0x400
 800167c:	4290      	cmp	r0, r2
 800167e:	d00b      	beq.n	8001698 <TIM_Base_SetConfig+0x8c>
 8001680:	f502 5270 	add.w	r2, r2, #15360	@ 0x3c00
 8001684:	4290      	cmp	r0, r2
 8001686:	d007      	beq.n	8001698 <TIM_Base_SetConfig+0x8c>
 8001688:	f502 6280 	add.w	r2, r2, #1024	@ 0x400
 800168c:	4290      	cmp	r0, r2
 800168e:	d003      	beq.n	8001698 <TIM_Base_SetConfig+0x8c>
 8001690:	f502 6280 	add.w	r2, r2, #1024	@ 0x400
 8001694:	4290      	cmp	r0, r2
 8001696:	d101      	bne.n	800169c <TIM_Base_SetConfig+0x90>
 8001698:	690a      	ldr	r2, [r1, #16]
 800169a:	6302      	str	r2, [r0, #48]	@ 0x30
 800169c:	6802      	ldr	r2, [r0, #0]
 800169e:	f042 0204 	orr.w	r2, r2, #4
 80016a2:	6002      	str	r2, [r0, #0]
 80016a4:	2201      	movs	r2, #1
 80016a6:	6142      	str	r2, [r0, #20]
 80016a8:	6003      	str	r3, [r0, #0]
 80016aa:	4770      	bx	lr
 80016ac:	40010000 	.word	0x40010000
 80016b0:	40014000 	.word	0x40014000

080016b4 <HAL_TIM_Base_Init>:
 80016b4:	b510      	push	{r4, lr}
 80016b6:	4604      	mov	r4, r0
 80016b8:	b350      	cbz	r0, 8001710 <HAL_TIM_Base_Init+0x5c>
 80016ba:	f890 303d 	ldrb.w	r3, [r0, #61]	@ 0x3d
 80016be:	f003 02ff 	and.w	r2, r3, #255	@ 0xff
 80016c2:	b91b      	cbnz	r3, 80016cc <HAL_TIM_Base_Init+0x18>
 80016c4:	f880 203c 	strb.w	r2, [r0, #60]	@ 0x3c
 80016c8:	f7fe ff06 	bl	80004d8 <HAL_TIM_Base_MspInit>
 80016cc:	2302      	movs	r3, #2
 80016ce:	6820      	ldr	r0, [r4, #0]
 80016d0:	1d21      	adds	r1, r4, #4
 80016d2:	f884 303d 	strb.w	r3, [r4, #61]	@ 0x3d
 80016d6:	f7ff ff99 	bl	800160c <TIM_Base_SetConfig>
 80016da:	2301      	movs	r3, #1
 80016dc:	2000      	movs	r0, #0
 80016de:	f884 3048 	strb.w	r3, [r4, #72]	@ 0x48
 80016e2:	f884 303e 	strb.w	r3, [r4, #62]	@ 0x3e
 80016e6:	f884 303f 	strb.w	r3, [r4, #63]	@ 0x3f
 80016ea:	f884 3040 	strb.w	r3, [r4, #64]	@ 0x40
 80016ee:	f884 3041 	strb.w	r3, [r4, #65]	@ 0x41
 80016f2:	f884 3042 	strb.w	r3, [r4, #66]	@ 0x42
 80016f6:	f884 3043 	strb.w	r3, [r4, #67]	@ 0x43
 80016fa:	f884 3044 	strb.w	r3, [r4, #68]	@ 0x44
 80016fe:	f884 3045 	strb.w	r3, [r4, #69]	@ 0x45
 8001702:	f884 3046 	strb.w	r3, [r4, #70]	@ 0x46
 8001706:	f884 3047 	strb.w	r3, [r4, #71]	@ 0x47
 800170a:	f884 303d 	strb.w	r3, [r4, #61]	@ 0x3d
 800170e:	bd10      	pop	{r4, pc}
 8001710:	2001      	movs	r0, #1
 8001712:	e7fc      	b.n	800170e <HAL_TIM_Base_Init+0x5a>

08001714 <HAL_TIM_PWM_Init>:
 8001714:	b510      	push	{r4, lr}
 8001716:	4604      	mov	r4, r0
 8001718:	b350      	cbz	r0, 8001770 <HAL_TIM_PWM_Init+0x5c>
 800171a:	f890 303d 	ldrb.w	r3, [r0, #61]	@ 0x3d
 800171e:	f003 02ff 	and.w	r2, r3, #255	@ 0xff
 8001722:	b91b      	cbnz	r3, 800172c <HAL_TIM_PWM_Init+0x18>
 8001724:	f880 203c 	strb.w	r2, [r0, #60]	@ 0x3c
 8001728:	f7ff ff6e 	bl	8001608 <HAL_TIM_PWM_MspInit>
 800172c:	2302      	movs	r3, #2
 800172e:	6820      	ldr	r0, [r4, #0]
 8001730:	1d21      	adds	r1, r4, #4
 8001732:	f884 303d 	strb.w	r3, [r4, #61]	@ 0x3d
 8001736:	f7ff ff69 	bl	800160c <TIM_Base_SetConfig>
 800173a:	2301      	movs	r3, #1
 800173c:	2000      	movs	r0, #0
 800173e:	f884 3048 	strb.w	r3, [r4, #72]	@ 0x48
 8001742:	f884 303e 	strb.w	r3, [r4, #62]	@ 0x3e
 8001746:	f884 303f 	strb.w	r3, [r4, #63]	@ 0x3f
 800174a:	f884 3040 	strb.w	r3, [r4, #64]	@ 0x40
 800174e:	f884 3041 	strb.w	r3, [r4, #65]	@ 0x41
 8001752:	f884 3042 	strb.w	r3, [r4, #66]	@ 0x42
 8001756:	f884 3043 	strb.w	r3, [r4, #67]	@ 0x43
 800175a:	f884 3044 	strb.w	r3, [r4, #68]	@ 0x44
 800175e:	f884 3045 	strb.w	r3, [r4, #69]	@ 0x45
 8001762:	f884 3046 	strb.w	r3, [r4, #70]	@ 0x46
 8001766:	f884 3047 	strb.w	r3, [r4, #71]	@ 0x47
 800176a:	f884 303d 	strb.w	r3, [r4, #61]	@ 0x3d
 800176e:	bd10      	pop	{r4, pc}
 8001770:	2001      	movs	r0, #1
 8001772:	e7fc      	b.n	800176e <HAL_TIM_PWM_Init+0x5a>

08001774 <TIM_OC2_SetConfig>:
 8001774:	6a03      	ldr	r3, [r0, #32]
 8001776:	6a02      	ldr	r2, [r0, #32]
 8001778:	f023 0320 	bic.w	r3, r3, #32
 800177c:	f022 0210 	bic.w	r2, r2, #16
 8001780:	b570      	push	{r4, r5, r6, lr}
 8001782:	6202      	str	r2, [r0, #32]
 8001784:	6844      	ldr	r4, [r0, #4]
 8001786:	6982      	ldr	r2, [r0, #24]
 8001788:	680d      	ldr	r5, [r1, #0]
 800178a:	f022 7280 	bic.w	r2, r2, #16777216	@ 0x1000000
 800178e:	f422 42e6 	bic.w	r2, r2, #29440	@ 0x7300
 8001792:	ea42 2205 	orr.w	r2, r2, r5, lsl #8
 8001796:	688d      	ldr	r5, [r1, #8]
 8001798:	ea43 1305 	orr.w	r3, r3, r5, lsl #4
 800179c:	4d13      	ldr	r5, [pc, #76]	@ (80017ec <TIM_OC2_SetConfig+0x78>)
 800179e:	42a8      	cmp	r0, r5
 80017a0:	d00f      	beq.n	80017c2 <TIM_OC2_SetConfig+0x4e>
 80017a2:	f505 6580 	add.w	r5, r5, #1024	@ 0x400
 80017a6:	42a8      	cmp	r0, r5
 80017a8:	d00b      	beq.n	80017c2 <TIM_OC2_SetConfig+0x4e>
 80017aa:	f505 5570 	add.w	r5, r5, #15360	@ 0x3c00
 80017ae:	42a8      	cmp	r0, r5
 80017b0:	d10f      	bne.n	80017d2 <TIM_OC2_SetConfig+0x5e>
 80017b2:	f424 6540 	bic.w	r5, r4, #3072	@ 0xc00
 80017b6:	e9d1 4605 	ldrd	r4, r6, [r1, #20]
 80017ba:	4334      	orrs	r4, r6
 80017bc:	ea45 0484 	orr.w	r4, r5, r4, lsl #2
 80017c0:	e00e      	b.n	80017e0 <TIM_OC2_SetConfig+0x6c>
 80017c2:	f023 0380 	bic.w	r3, r3, #128	@ 0x80
 80017c6:	68cd      	ldr	r5, [r1, #12]
 80017c8:	ea43 1305 	orr.w	r3, r3, r5, lsl #4
 80017cc:	f023 0340 	bic.w	r3, r3, #64	@ 0x40
 80017d0:	e7ef      	b.n	80017b2 <TIM_OC2_SetConfig+0x3e>
 80017d2:	4d07      	ldr	r5, [pc, #28]	@ (80017f0 <TIM_OC2_SetConfig+0x7c>)
 80017d4:	42a8      	cmp	r0, r5
 80017d6:	d0ec      	beq.n	80017b2 <TIM_OC2_SetConfig+0x3e>
 80017d8:	f505 6580 	add.w	r5, r5, #1024	@ 0x400
 80017dc:	42a8      	cmp	r0, r5
 80017de:	d0e8      	beq.n	80017b2 <TIM_OC2_SetConfig+0x3e>
 80017e0:	6044      	str	r4, [r0, #4]
 80017e2:	6182      	str	r2, [r0, #24]
 80017e4:	684a      	ldr	r2, [r1, #4]
 80017e6:	6382      	str	r2, [r0, #56]	@ 0x38
 80017e8:	6203      	str	r3, [r0, #32]
 80017ea:	bd70      	pop	{r4, r5, r6, pc}
 80017ec:	40010000 	.word	0x40010000
 80017f0:	40014400 	.word	0x40014400

080017f4 <HAL_TIM_PWM_ConfigChannel>:
 80017f4:	b538      	push	{r3, r4, r5, lr}
 80017f6:	f890 303c 	ldrb.w	r3, [r0, #60]	@ 0x3c
 80017fa:	4604      	mov	r4, r0
 80017fc:	2b01      	cmp	r3, #1
 80017fe:	d073      	beq.n	80018e8 <HAL_TIM_PWM_ConfigChannel+0xf4>
 8001800:	2001      	movs	r0, #1
 8001802:	2a0c      	cmp	r2, #12
 8001804:	f884 003c 	strb.w	r0, [r4, #60]	@ 0x3c
 8001808:	d04e      	beq.n	80018a8 <HAL_TIM_PWM_ConfigChannel+0xb4>
 800180a:	d808      	bhi.n	800181e <HAL_TIM_PWM_ConfigChannel+0x2a>
 800180c:	2a04      	cmp	r2, #4
 800180e:	d02b      	beq.n	8001868 <HAL_TIM_PWM_ConfigChannel+0x74>
 8001810:	2a08      	cmp	r2, #8
 8001812:	d039      	beq.n	8001888 <HAL_TIM_PWM_ConfigChannel+0x94>
 8001814:	b1ba      	cbz	r2, 8001846 <HAL_TIM_PWM_ConfigChannel+0x52>
 8001816:	2300      	movs	r3, #0
 8001818:	f884 303c 	strb.w	r3, [r4, #60]	@ 0x3c
 800181c:	bd38      	pop	{r3, r4, r5, pc}
 800181e:	2a10      	cmp	r2, #16
 8001820:	d052      	beq.n	80018c8 <HAL_TIM_PWM_ConfigChannel+0xd4>
 8001822:	2a14      	cmp	r2, #20
 8001824:	d1f7      	bne.n	8001816 <HAL_TIM_PWM_ConfigChannel+0x22>
 8001826:	6820      	ldr	r0, [r4, #0]
 8001828:	f7ff feba 	bl	80015a0 <TIM_OC6_SetConfig>
 800182c:	690a      	ldr	r2, [r1, #16]
 800182e:	6d43      	ldr	r3, [r0, #84]	@ 0x54
 8001830:	f443 6300 	orr.w	r3, r3, #2048	@ 0x800
 8001834:	6543      	str	r3, [r0, #84]	@ 0x54
 8001836:	6d43      	ldr	r3, [r0, #84]	@ 0x54
 8001838:	f423 6380 	bic.w	r3, r3, #1024	@ 0x400
 800183c:	6543      	str	r3, [r0, #84]	@ 0x54
 800183e:	6d43      	ldr	r3, [r0, #84]	@ 0x54
 8001840:	ea43 2302 	orr.w	r3, r3, r2, lsl #8
 8001844:	e04e      	b.n	80018e4 <HAL_TIM_PWM_ConfigChannel+0xf0>
 8001846:	6820      	ldr	r0, [r4, #0]
 8001848:	f7ff fdc8 	bl	80013dc <TIM_OC1_SetConfig>
 800184c:	690a      	ldr	r2, [r1, #16]
 800184e:	6983      	ldr	r3, [r0, #24]
 8001850:	f043 0308 	orr.w	r3, r3, #8
 8001854:	6183      	str	r3, [r0, #24]
 8001856:	6983      	ldr	r3, [r0, #24]
 8001858:	f023 0304 	bic.w	r3, r3, #4
 800185c:	6183      	str	r3, [r0, #24]
 800185e:	6983      	ldr	r3, [r0, #24]
 8001860:	4313      	orrs	r3, r2
 8001862:	6183      	str	r3, [r0, #24]
 8001864:	2000      	movs	r0, #0
 8001866:	e7d6      	b.n	8001816 <HAL_TIM_PWM_ConfigChannel+0x22>
 8001868:	6820      	ldr	r0, [r4, #0]
 800186a:	f7ff ff83 	bl	8001774 <TIM_OC2_SetConfig>
 800186e:	690a      	ldr	r2, [r1, #16]
 8001870:	6983      	ldr	r3, [r0, #24]
 8001872:	f443 6300 	orr.w	r3, r3, #2048	@ 0x800
 8001876:	6183      	str	r3, [r0, #24]
 8001878:	6983      	ldr	r3, [r0, #24]
 800187a:	f423 6380 	bic.w	r3, r3, #1024	@ 0x400
 800187e:	6183      	str	r3, [r0, #24]
 8001880:	6983      	ldr	r3, [r0, #24]
 8001882:	ea43 2302 	orr.w	r3, r3, r2, lsl #8
 8001886:	e7ec      	b.n	8001862 <HAL_TIM_PWM_ConfigChannel+0x6e>
 8001888:	6820      	ldr	r0, [r4, #0]
 800188a:	f7ff fde1 	bl	8001450 <TIM_OC3_SetConfig>
 800188e:	690a      	ldr	r2, [r1, #16]
 8001890:	69c3      	ldr	r3, [r0, #28]
 8001892:	f043 0308 	orr.w	r3, r3, #8
 8001896:	61c3      	str	r3, [r0, #28]
 8001898:	69c3      	ldr	r3, [r0, #28]
 800189a:	f023 0304 	bic.w	r3, r3, #4
 800189e:	61c3      	str	r3, [r0, #28]
 80018a0:	69c3      	ldr	r3, [r0, #28]
 80018a2:	4313      	orrs	r3, r2
 80018a4:	61c3      	str	r3, [r0, #28]
 80018a6:	e7dd      	b.n	8001864 <HAL_TIM_PWM_ConfigChannel+0x70>
 80018a8:	6820      	ldr	r0, [r4, #0]
 80018aa:	f7ff fe11 	bl	80014d0 <TIM_OC4_SetConfig>
 80018ae:	690a      	ldr	r2, [r1, #16]
 80018b0:	69c3      	ldr	r3, [r0, #28]
 80018b2:	f443 6300 	orr.w	r3, r3, #2048	@ 0x800
 80018b6:	61c3      	str	r3, [r0, #28]
 80018b8:	69c3      	ldr	r3, [r0, #28]
 80018ba:	f423 6380 	bic.w	r3, r3, #1024	@ 0x400
 80018be:	61c3      	str	r3, [r0, #28]
 80018c0:	69c3      	ldr	r3, [r0, #28]
 80018c2:	ea43 2302 	orr.w	r3, r3, r2, lsl #8
 80018c6:	e7ed      	b.n	80018a4 <HAL_TIM_PWM_ConfigChannel+0xb0>
 80018c8:	6820      	ldr	r0, [r4, #0]
 80018ca:	f7ff fe35 	bl	8001538 <TIM_OC5_SetConfig>
 80018ce:	690a      	ldr	r2, [r1, #16]
 80018d0:	6d43      	ldr	r3, [r0, #84]	@ 0x54
 80018d2:	f043 0308 	orr.w	r3, r3, #8
 80018d6:	6543      	str	r3, [r0, #84]	@ 0x54
 80018d8:	6d43      	ldr	r3, [r0, #84]	@ 0x54
 80018da:	f023 0304 	bic.w	r3, r3, #4
 80018de:	6543      	str	r3, [r0, #84]	@ 0x54
 80018e0:	6d43      	ldr	r3, [r0, #84]	@ 0x54
 80018e2:	4313      	orrs	r3, r2
 80018e4:	6543      	str	r3, [r0, #84]	@ 0x54
 80018e6:	e7bd      	b.n	8001864 <HAL_TIM_PWM_ConfigChannel+0x70>
 80018e8:	2002      	movs	r0, #2
 80018ea:	e797      	b.n	800181c <HAL_TIM_PWM_ConfigChannel+0x28>

080018ec <TIM_ETR_SetConfig>:
 80018ec:	b510      	push	{r4, lr}
 80018ee:	430a      	orrs	r2, r1
 80018f0:	6884      	ldr	r4, [r0, #8]
 80018f2:	ea42 2203 	orr.w	r2, r2, r3, lsl #8
 80018f6:	f424 447f 	bic.w	r4, r4, #65280	@ 0xff00
 80018fa:	4322      	orrs	r2, r4
 80018fc:	6082      	str	r2, [r0, #8]
 80018fe:	bd10      	pop	{r4, pc}

08001900 <HAL_TIM_ConfigClockSource>:
 8001900:	b538      	push	{r3, r4, r5, lr}
 8001902:	f890 303c 	ldrb.w	r3, [r0, #60]	@ 0x3c
 8001906:	4604      	mov	r4, r0
 8001908:	2b01      	cmp	r3, #1
 800190a:	f04f 0302 	mov.w	r3, #2
 800190e:	f000 80aa 	beq.w	8001a66 <HAL_TIM_ConfigClockSource+0x166>
 8001912:	2201      	movs	r2, #1
 8001914:	f880 303d 	strb.w	r3, [r0, #61]	@ 0x3d
 8001918:	4b54      	ldr	r3, [pc, #336]	@ (8001a6c <HAL_TIM_ConfigClockSource+0x16c>)
 800191a:	f880 203c 	strb.w	r2, [r0, #60]	@ 0x3c
 800191e:	6800      	ldr	r0, [r0, #0]
 8001920:	6885      	ldr	r5, [r0, #8]
 8001922:	402b      	ands	r3, r5
 8001924:	6083      	str	r3, [r0, #8]
 8001926:	680b      	ldr	r3, [r1, #0]
 8001928:	2b70      	cmp	r3, #112	@ 0x70
 800192a:	d056      	beq.n	80019da <HAL_TIM_ConfigClockSource+0xda>
 800192c:	d83c      	bhi.n	80019a8 <HAL_TIM_ConfigClockSource+0xa8>
 800192e:	2b50      	cmp	r3, #80	@ 0x50
 8001930:	d067      	beq.n	8001a02 <HAL_TIM_ConfigClockSource+0x102>
 8001932:	d81d      	bhi.n	8001970 <HAL_TIM_ConfigClockSource+0x70>
 8001934:	2b40      	cmp	r3, #64	@ 0x40
 8001936:	d07d      	beq.n	8001a34 <HAL_TIM_ConfigClockSource+0x134>
 8001938:	d806      	bhi.n	8001948 <HAL_TIM_ConfigClockSource+0x48>
 800193a:	2b20      	cmp	r3, #32
 800193c:	d00e      	beq.n	800195c <HAL_TIM_ConfigClockSource+0x5c>
 800193e:	d80b      	bhi.n	8001958 <HAL_TIM_ConfigClockSource+0x58>
 8001940:	f033 0210 	bics.w	r2, r3, #16
 8001944:	d00a      	beq.n	800195c <HAL_TIM_ConfigClockSource+0x5c>
 8001946:	2201      	movs	r2, #1
 8001948:	2301      	movs	r3, #1
 800194a:	f884 303d 	strb.w	r3, [r4, #61]	@ 0x3d
 800194e:	2300      	movs	r3, #0
 8001950:	f884 303c 	strb.w	r3, [r4, #60]	@ 0x3c
 8001954:	4610      	mov	r0, r2
 8001956:	bd38      	pop	{r3, r4, r5, pc}
 8001958:	2b30      	cmp	r3, #48	@ 0x30
 800195a:	d1f4      	bne.n	8001946 <HAL_TIM_ConfigClockSource+0x46>
 800195c:	6882      	ldr	r2, [r0, #8]
 800195e:	f422 1240 	bic.w	r2, r2, #3145728	@ 0x300000
 8001962:	f022 0270 	bic.w	r2, r2, #112	@ 0x70
 8001966:	431a      	orrs	r2, r3
 8001968:	f042 0207 	orr.w	r2, r2, #7
 800196c:	6082      	str	r2, [r0, #8]
 800196e:	e03d      	b.n	80019ec <HAL_TIM_ConfigClockSource+0xec>
 8001970:	2b60      	cmp	r3, #96	@ 0x60
 8001972:	d1e9      	bne.n	8001948 <HAL_TIM_ConfigClockSource+0x48>
 8001974:	6a03      	ldr	r3, [r0, #32]
 8001976:	6a02      	ldr	r2, [r0, #32]
 8001978:	684d      	ldr	r5, [r1, #4]
 800197a:	f023 03a0 	bic.w	r3, r3, #160	@ 0xa0
 800197e:	f022 0210 	bic.w	r2, r2, #16
 8001982:	68c9      	ldr	r1, [r1, #12]
 8001984:	ea43 1305 	orr.w	r3, r3, r5, lsl #4
 8001988:	6202      	str	r2, [r0, #32]
 800198a:	6982      	ldr	r2, [r0, #24]
 800198c:	f422 4270 	bic.w	r2, r2, #61440	@ 0xf000
 8001990:	ea42 3201 	orr.w	r2, r2, r1, lsl #12
 8001994:	6182      	str	r2, [r0, #24]
 8001996:	6203      	str	r3, [r0, #32]
 8001998:	6883      	ldr	r3, [r0, #8]
 800199a:	f423 1340 	bic.w	r3, r3, #3145728	@ 0x300000
 800199e:	f023 0370 	bic.w	r3, r3, #112	@ 0x70
 80019a2:	f043 0367 	orr.w	r3, r3, #103	@ 0x67
 80019a6:	e020      	b.n	80019ea <HAL_TIM_ConfigClockSource+0xea>
 80019a8:	f5b3 5f00 	cmp.w	r3, #8192	@ 0x2000
 80019ac:	d020      	beq.n	80019f0 <HAL_TIM_ConfigClockSource+0xf0>
 80019ae:	d804      	bhi.n	80019ba <HAL_TIM_ConfigClockSource+0xba>
 80019b0:	f5b3 5280 	subs.w	r2, r3, #4096	@ 0x1000
 80019b4:	bf18      	it	ne
 80019b6:	2201      	movne	r2, #1
 80019b8:	e7c6      	b.n	8001948 <HAL_TIM_ConfigClockSource+0x48>
 80019ba:	492d      	ldr	r1, [pc, #180]	@ (8001a70 <HAL_TIM_ConfigClockSource+0x170>)
 80019bc:	428b      	cmp	r3, r1
 80019be:	d0cd      	beq.n	800195c <HAL_TIM_ConfigClockSource+0x5c>
 80019c0:	d805      	bhi.n	80019ce <HAL_TIM_ConfigClockSource+0xce>
 80019c2:	f023 0110 	bic.w	r1, r3, #16
 80019c6:	f5b1 1f80 	cmp.w	r1, #1048576	@ 0x100000
 80019ca:	d1bd      	bne.n	8001948 <HAL_TIM_ConfigClockSource+0x48>
 80019cc:	e7c6      	b.n	800195c <HAL_TIM_ConfigClockSource+0x5c>
 80019ce:	4929      	ldr	r1, [pc, #164]	@ (8001a74 <HAL_TIM_ConfigClockSource+0x174>)
 80019d0:	428b      	cmp	r3, r1
 80019d2:	d0c3      	beq.n	800195c <HAL_TIM_ConfigClockSource+0x5c>
 80019d4:	3110      	adds	r1, #16
 80019d6:	428b      	cmp	r3, r1
 80019d8:	e7f7      	b.n	80019ca <HAL_TIM_ConfigClockSource+0xca>
 80019da:	68cb      	ldr	r3, [r1, #12]
 80019dc:	e9d1 2101 	ldrd	r2, r1, [r1, #4]
 80019e0:	f7ff ff84 	bl	80018ec <TIM_ETR_SetConfig>
 80019e4:	6883      	ldr	r3, [r0, #8]
 80019e6:	f043 0377 	orr.w	r3, r3, #119	@ 0x77
 80019ea:	6083      	str	r3, [r0, #8]
 80019ec:	2200      	movs	r2, #0
 80019ee:	e7ab      	b.n	8001948 <HAL_TIM_ConfigClockSource+0x48>
 80019f0:	68cb      	ldr	r3, [r1, #12]
 80019f2:	e9d1 2101 	ldrd	r2, r1, [r1, #4]
 80019f6:	f7ff ff79 	bl	80018ec <TIM_ETR_SetConfig>
 80019fa:	6883      	ldr	r3, [r0, #8]
 80019fc:	f443 4380 	orr.w	r3, r3, #16384	@ 0x4000
 8001a00:	e7f3      	b.n	80019ea <HAL_TIM_ConfigClockSource+0xea>
 8001a02:	684a      	ldr	r2, [r1, #4]
 8001a04:	68cd      	ldr	r5, [r1, #12]
 8001a06:	6a01      	ldr	r1, [r0, #32]
 8001a08:	6a03      	ldr	r3, [r0, #32]
 8001a0a:	f021 010a 	bic.w	r1, r1, #10
 8001a0e:	f023 0301 	bic.w	r3, r3, #1
 8001a12:	430a      	orrs	r2, r1
 8001a14:	6203      	str	r3, [r0, #32]
 8001a16:	6983      	ldr	r3, [r0, #24]
 8001a18:	f023 03f0 	bic.w	r3, r3, #240	@ 0xf0
 8001a1c:	ea43 1305 	orr.w	r3, r3, r5, lsl #4
 8001a20:	6183      	str	r3, [r0, #24]
 8001a22:	6202      	str	r2, [r0, #32]
 8001a24:	6883      	ldr	r3, [r0, #8]
 8001a26:	f423 1340 	bic.w	r3, r3, #3145728	@ 0x300000
 8001a2a:	f023 0370 	bic.w	r3, r3, #112	@ 0x70
 8001a2e:	f043 0357 	orr.w	r3, r3, #87	@ 0x57
 8001a32:	e7da      	b.n	80019ea <HAL_TIM_ConfigClockSource+0xea>
 8001a34:	684a      	ldr	r2, [r1, #4]
 8001a36:	68cd      	ldr	r5, [r1, #12]
 8001a38:	6a01      	ldr	r1, [r0, #32]
 8001a3a:	6a03      	ldr	r3, [r0, #32]
 8001a3c:	f021 010a 	bic.w	r1, r1, #10
 8001a40:	f023 0301 	bic.w	r3, r3, #1
 8001a44:	430a      	orrs	r2, r1
 8001a46:	6203      	str	r3, [r0, #32]
 8001a48:	6983      	ldr	r3, [r0, #24]
 8001a4a:	f023 03f0 	bic.w	r3, r3, #240	@ 0xf0
 8001a4e:	ea43 1305 	orr.w	r3, r3, r5, lsl #4
 8001a52:	6183      	str	r3, [r0, #24]
 8001a54:	6202      	str	r2, [r0, #32]
 8001a56:	6883      	ldr	r3, [r0, #8]
 8001a58:	f423 1340 	bic.w	r3, r3, #3145728	@ 0x300000
 8001a5c:	f023 0370 	bic.w	r3, r3, #112	@ 0x70
 8001a60:	f043 0347 	orr.w	r3, r3, #71	@ 0x47
 8001a64:	e7c1      	b.n	80019ea <HAL_TIM_ConfigClockSource+0xea>
 8001a66:	461a      	mov	r2, r3
 8001a68:	e774      	b.n	8001954 <HAL_TIM_ConfigClockSource+0x54>
 8001a6a:	bf00      	nop
 8001a6c:	ffce0088 	.word	0xffce0088
 8001a70:	00100020 	.word	0x00100020
 8001a74:	00100030 	.word	0x00100030

08001a78 <TIM_CCxChannelCmd>:
 8001a78:	b510      	push	{r4, lr}
 8001a7a:	f001 011f 	and.w	r1, r1, #31
 8001a7e:	2401      	movs	r4, #1
 8001a80:	6a03      	ldr	r3, [r0, #32]
 8001a82:	408c      	lsls	r4, r1
 8001a84:	408a      	lsls	r2, r1
 8001a86:	ea23 0304 	bic.w	r3, r3, r4
 8001a8a:	6203      	str	r3, [r0, #32]
 8001a8c:	6a03      	ldr	r3, [r0, #32]
 8001a8e:	431a      	orrs	r2, r3
 8001a90:	6202      	str	r2, [r0, #32]
 8001a92:	bd10      	pop	{r4, pc}

08001a94 <HAL_TIM_OC_Start>:
 8001a94:	2908      	cmp	r1, #8
 8001a96:	b508      	push	{r3, lr}
 8001a98:	d018      	beq.n	8001acc <HAL_TIM_OC_Start+0x38>
 8001a9a:	d805      	bhi.n	8001aa8 <HAL_TIM_OC_Start+0x14>
 8001a9c:	b159      	cbz	r1, 8001ab6 <HAL_TIM_OC_Start+0x22>
 8001a9e:	2904      	cmp	r1, #4
 8001aa0:	d011      	beq.n	8001ac6 <HAL_TIM_OC_Start+0x32>
 8001aa2:	f890 3043 	ldrb.w	r3, [r0, #67]	@ 0x43
 8001aa6:	e008      	b.n	8001aba <HAL_TIM_OC_Start+0x26>
 8001aa8:	290c      	cmp	r1, #12
 8001aaa:	d012      	beq.n	8001ad2 <HAL_TIM_OC_Start+0x3e>
 8001aac:	2910      	cmp	r1, #16
 8001aae:	d1f8      	bne.n	8001aa2 <HAL_TIM_OC_Start+0xe>
 8001ab0:	f890 3042 	ldrb.w	r3, [r0, #66]	@ 0x42
 8001ab4:	e001      	b.n	8001aba <HAL_TIM_OC_Start+0x26>
 8001ab6:	f890 303e 	ldrb.w	r3, [r0, #62]	@ 0x3e
 8001aba:	3b01      	subs	r3, #1
 8001abc:	bf18      	it	ne
 8001abe:	2301      	movne	r3, #1
 8001ac0:	b153      	cbz	r3, 8001ad8 <HAL_TIM_OC_Start+0x44>
 8001ac2:	2001      	movs	r0, #1
 8001ac4:	e041      	b.n	8001b4a <HAL_TIM_OC_Start+0xb6>
 8001ac6:	f890 303f 	ldrb.w	r3, [r0, #63]	@ 0x3f
 8001aca:	e7f6      	b.n	8001aba <HAL_TIM_OC_Start+0x26>
 8001acc:	f890 3040 	ldrb.w	r3, [r0, #64]	@ 0x40
 8001ad0:	e7f3      	b.n	8001aba <HAL_TIM_OC_Start+0x26>
 8001ad2:	f890 3041 	ldrb.w	r3, [r0, #65]	@ 0x41
 8001ad6:	e7f0      	b.n	8001aba <HAL_TIM_OC_Start+0x26>
 8001ad8:	2908      	cmp	r1, #8
 8001ada:	f04f 0302 	mov.w	r3, #2
 8001ade:	d038      	beq.n	8001b52 <HAL_TIM_OC_Start+0xbe>
 8001ae0:	d806      	bhi.n	8001af0 <HAL_TIM_OC_Start+0x5c>
 8001ae2:	b161      	cbz	r1, 8001afe <HAL_TIM_OC_Start+0x6a>
 8001ae4:	2904      	cmp	r1, #4
 8001ae6:	d031      	beq.n	8001b4c <HAL_TIM_OC_Start+0xb8>
 8001ae8:	2302      	movs	r3, #2
 8001aea:	f880 3043 	strb.w	r3, [r0, #67]	@ 0x43
 8001aee:	e008      	b.n	8001b02 <HAL_TIM_OC_Start+0x6e>
 8001af0:	290c      	cmp	r1, #12
 8001af2:	d031      	beq.n	8001b58 <HAL_TIM_OC_Start+0xc4>
 8001af4:	2910      	cmp	r1, #16
 8001af6:	d1f7      	bne.n	8001ae8 <HAL_TIM_OC_Start+0x54>
 8001af8:	f880 3042 	strb.w	r3, [r0, #66]	@ 0x42
 8001afc:	e001      	b.n	8001b02 <HAL_TIM_OC_Start+0x6e>
 8001afe:	f880 303e 	strb.w	r3, [r0, #62]	@ 0x3e
 8001b02:	6800      	ldr	r0, [r0, #0]
 8001b04:	2201      	movs	r2, #1
 8001b06:	f7ff ffb7 	bl	8001a78 <TIM_CCxChannelCmd>
 8001b0a:	4b24      	ldr	r3, [pc, #144]	@ (8001b9c <HAL_TIM_OC_Start+0x108>)
 8001b0c:	4298      	cmp	r0, r3
 8001b0e:	d00f      	beq.n	8001b30 <HAL_TIM_OC_Start+0x9c>
 8001b10:	f503 6380 	add.w	r3, r3, #1024	@ 0x400
 8001b14:	4298      	cmp	r0, r3
 8001b16:	d00b      	beq.n	8001b30 <HAL_TIM_OC_Start+0x9c>
 8001b18:	f503 5370 	add.w	r3, r3, #15360	@ 0x3c00
 8001b1c:	4298      	cmp	r0, r3
 8001b1e:	d007      	beq.n	8001b30 <HAL_TIM_OC_Start+0x9c>
 8001b20:	f503 6380 	add.w	r3, r3, #1024	@ 0x400
 8001b24:	4298      	cmp	r0, r3
 8001b26:	d003      	beq.n	8001b30 <HAL_TIM_OC_Start+0x9c>
 8001b28:	f503 6380 	add.w	r3, r3, #1024	@ 0x400
 8001b2c:	4298      	cmp	r0, r3
 8001b2e:	d116      	bne.n	8001b5e <HAL_TIM_OC_Start+0xca>
 8001b30:	6c43      	ldr	r3, [r0, #68]	@ 0x44
 8001b32:	f443 4300 	orr.w	r3, r3, #32768	@ 0x8000
 8001b36:	6443      	str	r3, [r0, #68]	@ 0x44
 8001b38:	4b18      	ldr	r3, [pc, #96]	@ (8001b9c <HAL_TIM_OC_Start+0x108>)
 8001b3a:	4298      	cmp	r0, r3
 8001b3c:	d127      	bne.n	8001b8e <HAL_TIM_OC_Start+0xfa>
 8001b3e:	6882      	ldr	r2, [r0, #8]
 8001b40:	4b17      	ldr	r3, [pc, #92]	@ (8001ba0 <HAL_TIM_OC_Start+0x10c>)
 8001b42:	4013      	ands	r3, r2
 8001b44:	2b06      	cmp	r3, #6
 8001b46:	d11a      	bne.n	8001b7e <HAL_TIM_OC_Start+0xea>
 8001b48:	2000      	movs	r0, #0
 8001b4a:	bd08      	pop	{r3, pc}
 8001b4c:	f880 303f 	strb.w	r3, [r0, #63]	@ 0x3f
 8001b50:	e7d7      	b.n	8001b02 <HAL_TIM_OC_Start+0x6e>
 8001b52:	f880 3040 	strb.w	r3, [r0, #64]	@ 0x40
 8001b56:	e7d4      	b.n	8001b02 <HAL_TIM_OC_Start+0x6e>
 8001b58:	f880 3041 	strb.w	r3, [r0, #65]	@ 0x41
 8001b5c:	e7d1      	b.n	8001b02 <HAL_TIM_OC_Start+0x6e>
 8001b5e:	f1b0 4f80 	cmp.w	r0, #1073741824	@ 0x40000000
 8001b62:	d0ec      	beq.n	8001b3e <HAL_TIM_OC_Start+0xaa>
 8001b64:	4b0f      	ldr	r3, [pc, #60]	@ (8001ba4 <HAL_TIM_OC_Start+0x110>)
 8001b66:	4298      	cmp	r0, r3
 8001b68:	d0e9      	beq.n	8001b3e <HAL_TIM_OC_Start+0xaa>
 8001b6a:	f503 6380 	add.w	r3, r3, #1024	@ 0x400
 8001b6e:	4298      	cmp	r0, r3
 8001b70:	d0e5      	beq.n	8001b3e <HAL_TIM_OC_Start+0xaa>
 8001b72:	f503 6380 	add.w	r3, r3, #1024	@ 0x400
 8001b76:	4298      	cmp	r0, r3
 8001b78:	d0e1      	beq.n	8001b3e <HAL_TIM_OC_Start+0xaa>
 8001b7a:	4b0b      	ldr	r3, [pc, #44]	@ (8001ba8 <HAL_TIM_OC_Start+0x114>)
 8001b7c:	e00b      	b.n	8001b96 <HAL_TIM_OC_Start+0x102>
 8001b7e:	f5b3 3f80 	cmp.w	r3, #65536	@ 0x10000
 8001b82:	d0e1      	beq.n	8001b48 <HAL_TIM_OC_Start+0xb4>
 8001b84:	6803      	ldr	r3, [r0, #0]
 8001b86:	f043 0301 	orr.w	r3, r3, #1
 8001b8a:	6003      	str	r3, [r0, #0]
 8001b8c:	e7dc      	b.n	8001b48 <HAL_TIM_OC_Start+0xb4>
 8001b8e:	4b07      	ldr	r3, [pc, #28]	@ (8001bac <HAL_TIM_OC_Start+0x118>)
 8001b90:	4298      	cmp	r0, r3
 8001b92:	d0d4      	beq.n	8001b3e <HAL_TIM_OC_Start+0xaa>
 8001b94:	4b06      	ldr	r3, [pc, #24]	@ (8001bb0 <HAL_TIM_OC_Start+0x11c>)
 8001b96:	4298      	cmp	r0, r3
 8001b98:	d0d1      	beq.n	8001b3e <HAL_TIM_OC_Start+0xaa>
 8001b9a:	e7f3      	b.n	8001b84 <HAL_TIM_OC_Start+0xf0>
 8001b9c:	40010000 	.word	0x40010000
 8001ba0:	00010007 	.word	0x00010007
 8001ba4:	40000400 	.word	0x40000400
 8001ba8:	40001800 	.word	0x40001800
 8001bac:	40010400 	.word	0x40010400
 8001bb0:	40014000 	.word	0x40014000

08001bb4 <HAL_TIM_PWM_Start>:
 8001bb4:	f7ff bf6e 	b.w	8001a94 <HAL_TIM_OC_Start>

08001bb8 <HAL_TIMEx_MasterConfigSynchronization>:
 8001bb8:	b570      	push	{r4, r5, r6, lr}
 8001bba:	f890 303c 	ldrb.w	r3, [r0, #60]	@ 0x3c
 8001bbe:	4604      	mov	r4, r0
 8001bc0:	2002      	movs	r0, #2
 8001bc2:	2b01      	cmp	r3, #1
 8001bc4:	d03b      	beq.n	8001c3e <HAL_TIMEx_MasterConfigSynchronization+0x86>
 8001bc6:	6823      	ldr	r3, [r4, #0]
 8001bc8:	4d1d      	ldr	r5, [pc, #116]	@ (8001c40 <HAL_TIMEx_MasterConfigSynchronization+0x88>)
 8001bca:	f884 003d 	strb.w	r0, [r4, #61]	@ 0x3d
 8001bce:	42ab      	cmp	r3, r5
 8001bd0:	685a      	ldr	r2, [r3, #4]
 8001bd2:	6898      	ldr	r0, [r3, #8]
 8001bd4:	d002      	beq.n	8001bdc <HAL_TIMEx_MasterConfigSynchronization+0x24>
 8001bd6:	4e1b      	ldr	r6, [pc, #108]	@ (8001c44 <HAL_TIMEx_MasterConfigSynchronization+0x8c>)
 8001bd8:	42b3      	cmp	r3, r6
 8001bda:	d103      	bne.n	8001be4 <HAL_TIMEx_MasterConfigSynchronization+0x2c>
 8001bdc:	f422 0270 	bic.w	r2, r2, #15728640	@ 0xf00000
 8001be0:	684e      	ldr	r6, [r1, #4]
 8001be2:	4332      	orrs	r2, r6
 8001be4:	680e      	ldr	r6, [r1, #0]
 8001be6:	f022 0270 	bic.w	r2, r2, #112	@ 0x70
 8001bea:	42ab      	cmp	r3, r5
 8001bec:	ea42 0206 	orr.w	r2, r2, r6
 8001bf0:	605a      	str	r2, [r3, #4]
 8001bf2:	d019      	beq.n	8001c28 <HAL_TIMEx_MasterConfigSynchronization+0x70>
 8001bf4:	f1b3 4f80 	cmp.w	r3, #1073741824	@ 0x40000000
 8001bf8:	d016      	beq.n	8001c28 <HAL_TIMEx_MasterConfigSynchronization+0x70>
 8001bfa:	4a13      	ldr	r2, [pc, #76]	@ (8001c48 <HAL_TIMEx_MasterConfigSynchronization+0x90>)
 8001bfc:	4293      	cmp	r3, r2
 8001bfe:	d013      	beq.n	8001c28 <HAL_TIMEx_MasterConfigSynchronization+0x70>
 8001c00:	f502 6280 	add.w	r2, r2, #1024	@ 0x400
 8001c04:	4293      	cmp	r3, r2
 8001c06:	d00f      	beq.n	8001c28 <HAL_TIMEx_MasterConfigSynchronization+0x70>
 8001c08:	f502 6280 	add.w	r2, r2, #1024	@ 0x400
 8001c0c:	4293      	cmp	r3, r2
 8001c0e:	d00b      	beq.n	8001c28 <HAL_TIMEx_MasterConfigSynchronization+0x70>
 8001c10:	f502 4278 	add.w	r2, r2, #63488	@ 0xf800
 8001c14:	4293      	cmp	r3, r2
 8001c16:	d007      	beq.n	8001c28 <HAL_TIMEx_MasterConfigSynchronization+0x70>
 8001c18:	f5a2 426c 	sub.w	r2, r2, #60416	@ 0xec00
 8001c1c:	4293      	cmp	r3, r2
 8001c1e:	d003      	beq.n	8001c28 <HAL_TIMEx_MasterConfigSynchronization+0x70>
 8001c20:	f502 3294 	add.w	r2, r2, #75776	@ 0x12800
 8001c24:	4293      	cmp	r3, r2
 8001c26:	d104      	bne.n	8001c32 <HAL_TIMEx_MasterConfigSynchronization+0x7a>
 8001c28:	6889      	ldr	r1, [r1, #8]
 8001c2a:	f020 0280 	bic.w	r2, r0, #128	@ 0x80
 8001c2e:	430a      	orrs	r2, r1
 8001c30:	609a      	str	r2, [r3, #8]
 8001c32:	2301      	movs	r3, #1
 8001c34:	2000      	movs	r0, #0
 8001c36:	f884 303d 	strb.w	r3, [r4, #61]	@ 0x3d
 8001c3a:	f884 003c 	strb.w	r0, [r4, #60]	@ 0x3c
 8001c3e:	bd70      	pop	{r4, r5, r6, pc}
 8001c40:	40010000 	.word	0x40010000
 8001c44:	40010400 	.word	0x40010400
 8001c48:	40000400 	.word	0x40000400

08001c4c <HAL_TIMEx_ConfigBreakDeadTime>:
 8001c4c:	b510      	push	{r4, lr}
 8001c4e:	f890 303c 	ldrb.w	r3, [r0, #60]	@ 0x3c
 8001c52:	4602      	mov	r2, r0
 8001c54:	2b01      	cmp	r3, #1
 8001c56:	d037      	beq.n	8001cc8 <HAL_TIMEx_ConfigBreakDeadTime+0x7c>
 8001c58:	68cb      	ldr	r3, [r1, #12]
 8001c5a:	6888      	ldr	r0, [r1, #8]
 8001c5c:	f423 7340 	bic.w	r3, r3, #768	@ 0x300
 8001c60:	4c1a      	ldr	r4, [pc, #104]	@ (8001ccc <HAL_TIMEx_ConfigBreakDeadTime+0x80>)
 8001c62:	4303      	orrs	r3, r0
 8001c64:	6848      	ldr	r0, [r1, #4]
 8001c66:	f423 6380 	bic.w	r3, r3, #1024	@ 0x400
 8001c6a:	4303      	orrs	r3, r0
 8001c6c:	6808      	ldr	r0, [r1, #0]
 8001c6e:	f423 6300 	bic.w	r3, r3, #2048	@ 0x800
 8001c72:	4303      	orrs	r3, r0
 8001c74:	6908      	ldr	r0, [r1, #16]
 8001c76:	f423 5380 	bic.w	r3, r3, #4096	@ 0x1000
 8001c7a:	4303      	orrs	r3, r0
 8001c7c:	6948      	ldr	r0, [r1, #20]
 8001c7e:	f423 5300 	bic.w	r3, r3, #8192	@ 0x2000
 8001c82:	4303      	orrs	r3, r0
 8001c84:	6a88      	ldr	r0, [r1, #40]	@ 0x28
 8001c86:	f423 4380 	bic.w	r3, r3, #16384	@ 0x4000
 8001c8a:	4303      	orrs	r3, r0
 8001c8c:	6988      	ldr	r0, [r1, #24]
 8001c8e:	f423 2370 	bic.w	r3, r3, #983040	@ 0xf0000
 8001c92:	ea43 4300 	orr.w	r3, r3, r0, lsl #16
 8001c96:	6810      	ldr	r0, [r2, #0]
 8001c98:	42a0      	cmp	r0, r4
 8001c9a:	d003      	beq.n	8001ca4 <HAL_TIMEx_ConfigBreakDeadTime+0x58>
 8001c9c:	f504 6480 	add.w	r4, r4, #1024	@ 0x400
 8001ca0:	42a0      	cmp	r0, r4
 8001ca2:	d10c      	bne.n	8001cbe <HAL_TIMEx_ConfigBreakDeadTime+0x72>
 8001ca4:	6a4c      	ldr	r4, [r1, #36]	@ 0x24
 8001ca6:	f423 0370 	bic.w	r3, r3, #15728640	@ 0xf00000
 8001caa:	ea43 5304 	orr.w	r3, r3, r4, lsl #20
 8001cae:	69cc      	ldr	r4, [r1, #28]
 8001cb0:	6a09      	ldr	r1, [r1, #32]
 8001cb2:	f023 7380 	bic.w	r3, r3, #16777216	@ 0x1000000
 8001cb6:	4323      	orrs	r3, r4
 8001cb8:	f023 7300 	bic.w	r3, r3, #33554432	@ 0x2000000
 8001cbc:	430b      	orrs	r3, r1
 8001cbe:	6443      	str	r3, [r0, #68]	@ 0x44
 8001cc0:	2000      	movs	r0, #0
 8001cc2:	f882 003c 	strb.w	r0, [r2, #60]	@ 0x3c
 8001cc6:	bd10      	pop	{r4, pc}
 8001cc8:	2002      	movs	r0, #2
 8001cca:	e7fc      	b.n	8001cc6 <HAL_TIMEx_ConfigBreakDeadTime+0x7a>
 8001ccc:	40010000 	.word	0x40010000

08001cd0 <memset>:
 8001cd0:	4402      	add	r2, r0
 8001cd2:	4603      	mov	r3, r0
 8001cd4:	4293      	cmp	r3, r2
 8001cd6:	d100      	bne.n	8001cda <memset+0xa>
 8001cd8:	4770      	bx	lr
 8001cda:	f803 1b01 	strb.w	r1, [r3], #1
 8001cde:	e7f9      	b.n	8001cd4 <memset+0x4>

08001ce0 <__libc_init_array>:
 8001ce0:	b570      	push	{r4, r5, r6, lr}
 8001ce2:	4d0d      	ldr	r5, [pc, #52]	@ (8001d18 <__libc_init_array+0x38>)
 8001ce4:	4c0d      	ldr	r4, [pc, #52]	@ (8001d1c <__libc_init_array+0x3c>)
 8001ce6:	1b64      	subs	r4, r4, r5
 8001ce8:	10a4      	asrs	r4, r4, #2
 8001cea:	2600      	movs	r6, #0
 8001cec:	42a6      	cmp	r6, r4
 8001cee:	d109      	bne.n	8001d04 <__libc_init_array+0x24>
 8001cf0:	4d0b      	ldr	r5, [pc, #44]	@ (8001d20 <__libc_init_array+0x40>)
 8001cf2:	4c0c      	ldr	r4, [pc, #48]	@ (8001d24 <__libc_init_array+0x44>)
 8001cf4:	f000 f818 	bl	8001d28 <_init>
 8001cf8:	1b64      	subs	r4, r4, r5
 8001cfa:	10a4      	asrs	r4, r4, #2
 8001cfc:	2600      	movs	r6, #0
 8001cfe:	42a6      	cmp	r6, r4
 8001d00:	d105      	bne.n	8001d0e <__libc_init_array+0x2e>
 8001d02:	bd70      	pop	{r4, r5, r6, pc}
 8001d04:	f855 3b04 	ldr.w	r3, [r5], #4
 8001d08:	4798      	blx	r3
 8001d0a:	3601      	adds	r6, #1
 8001d0c:	e7ee      	b.n	8001cec <__libc_init_array+0xc>
 8001d0e:	f855 3b04 	ldr.w	r3, [r5], #4
 8001d12:	4798      	blx	r3
 8001d14:	3601      	adds	r6, #1
 8001d16:	e7f2      	b.n	8001cfe <__libc_init_array+0x1e>
 8001d18:	08001d50 	.word	0x08001d50
 8001d1c:	08001d50 	.word	0x08001d50
 8001d20:	08001d50 	.word	0x08001d50
 8001d24:	08001d54 	.word	0x08001d54

08001d28 <_init>:
 8001d28:	b5f8      	push	{r3, r4, r5, r6, r7, lr}
 8001d2a:	bf00      	nop
 8001d2c:	bcf8      	pop	{r3, r4, r5, r6, r7}
 8001d2e:	bc08      	pop	{r3}
 8001d30:	469e      	mov	lr, r3
 8001d32:	4770      	bx	lr

08001d34 <_fini>:
 8001d34:	b5f8      	push	{r3, r4, r5, r6, r7, lr}
 8001d36:	bf00      	nop
 8001d38:	bcf8      	pop	{r3, r4, r5, r6, r7}
 8001d3a:	bc08      	pop	{r3}
 8001d3c:	469e      	mov	lr, r3
 8001d3e:	4770      	bx	lr
